Certificate:
    Data:
        Version: 3 (0x2)
        Serial Number:
            03:08:b7:d5:92:1f:bd:5a:12:66:c8:a0:c0:28:13:9b:08:59:b1:19
        Signature Algorithm: sha1WithRSAEncryption
        Issuer: C=AU, O=Dodgy Brothers, CN=Dodgy CA
        Validity
            Not Before: Aug 13 04:37:08 2024 GMT
            Not After : Aug 13 04:37:08 2025 GMT
        Subject: C=AU, O=Dodgy Brothers, CN=Brother 1, CN=lastupdate_utctime
        Subject Public Key Info:
            Public Key Algorithm: rsaEncryption
                Public-Key: (2048 bit)
                Modulus:
                    00:be:95:86:fa:71:4c:6a:ea:51:98:50:4b:99:a1:
                    2c:66:15:f3:60:f3:e1:ff:69:fb:ce:48:01:1d:fe:
                    e1:2c:38:b0:e3:bd:8f:4b:48:a7:7e:3a:c6:73:e3:
                    ab:bf:e1:da:6e:96:f5:fe:c3:e4:b4:a8:ad:bc:56:
                    34:d4:96:25:74:27:c3:10:db:35:10:25:1c:8e:4b:
                    81:9b:fb:42:04:7c:6f:3d:e2:38:6c:0e:e4:2e:8e:
                    2a:18:6d:30:cd:67:2a:23:6b:37:cf:05:9f:cc:b7:
                    59:58:7f:ba:c4:0a:3f:8c:a4:ad:cb:98:9c:c0:f2:
                    8f:69:67:0f:c1:4e:33:cf:fc:85:5e:bb:5e:cf:93:
                    b0:cf:d9:f4:52:79:87:b1:f8:4d:15:68:65:d5:b7:
                    19:08:63:7f:5e:b1:34:ad:05:8f:5a:f0:e4:e1:8f:
                    25:f2:5c:5c:61:95:b0:56:2d:31:2b:08:65:79:e5:
                    b1:3b:9d:3e:b9:52:4b:ac:5d:c4:58:66:85:8d:81:
                    b3:04:28:f4:3f:2f:ac:92:01:62:d5:fd:8e:0b:da:
                    02:0c:7a:c7:6e:09:1c:ac:1c:b2:4c:d7:54:b8:26:
                    33:b2:5f:14:f3:b1:f9:3d:62:4d:40:99:6b:b6:e7:
                    89:58:97:d6:d4:4d:ea:4b:68:52:f3:3c:a8:b1:35:
                    88:db
                Exponent: 65537 (0x10001)
        X509v3 extensions:
            X509v3 Subject Key Identifier: 
                A1:DF:33:C3:CF:3E:53:41:A7:68:44:CC:AA:19:E1:84:C9:0D:BC:C6
            X509v3 Authority Key Identifier: 
                keyid:B4:11:33:F1:D7:E2:5E:F7:53:9E:20:22:10:4F:86:06:BF:1F:C9:5E
                DirName:/C=AU/O=Dodgy Brothers/CN=Dodgy CA
                serial:28:56:83:5C:E7:24:3C:3E:1E:4A:85:B5:63:58:31:AC:68:FE:FB:70
            X509v3 Basic Constraints: critical
                CA:TRUE, pathlen:1
            X509v3 Key Usage: 
                Certificate Sign, CRL Sign
            X509v3 Issuer Alternative Name: 
                <EMPTY>

    Signature Algorithm: sha1WithRSAEncryption
    Signature Value:
        59:7b:c0:7d:41:29:d6:ea:f5:a8:0c:90:bd:1c:b9:83:92:28:
        c5:79:03:b7:39:46:24:4b:5f:9e:77:b6:90:41:1e:49:c9:1c:
        ce:84:33:de:e8:53:fe:22:61:d9:8a:50:b8:88:7c:2f:d4:54:
        09:3d:63:3f:ed:a1:ec:f1:de:c9:a0:bc:50:ad:9a:55:9b:11:
        f9:75:fe:9e:96:02:d2:82:12:02:8f:f2:df:f6:fd:08:5c:2c:
        38:52:e7:3d:d9:ca:0c:b7:4d:ba:83:81:c2:a1:d7:b9:bc:a4:
        53:22:41:d1:03:00:ba:e5:05:7f:84:b6:1c:9a:92:a1:3f:c8:
        2c:00:9e:8d:a3:f8:d3:2d:ba:7d:ae:14:18:ed:3b:74:aa:da:
        1c:d6:56:bd:3b:4e:69:0c:fb:61:7b:31:5b:42:ac:5a:cb:1f:
        02:52:ec:11:6e:53:b4:3d:15:4f:c3:4f:e6:9c:35:28:3b:3e:
        ea:06:92:b3:de:d0:23:51:a0:9e:1c:5c:e5:2f:d6:67:97:ac:
        f6:4b:5f:98:4e:97:86:c5:b9:50:4d:67:4e:4f:63:1c:0e:53:
        75:5b:54:51:80:ac:68:79:0b:7f:58:38:16:bf:c2:cc:cb:b2:
        84:f2:7c:a2:55:a6:77:db:44:83:29:5e:27:9a:25:2a:df:50:
        b5:75:32:57
-----BEGIN CERTIFICATE-----
MIID4zCCAsugAwIBAgIUAwi31ZIfvVoSZsigwCgTmwhZsRkwDQYJKoZIhvcNAQEF
BQAwOTELMAkGA1UEBhMCQVUxFzAVBgNVBAoMDkRvZGd5IEJyb3RoZXJzMREwDwYD
VQQDDAhEb2RneSBDQTAeFw0yNDA4MTMwNDM3MDhaFw0yNTA4MTMwNDM3MDhaMFcx
CzAJBgNVBAYTAkFVMRcwFQYDVQQKDA5Eb2RneSBCcm90aGVyczESMBAGA1UEAwwJ
QnJvdGhlciAxMRswGQYDVQQDDBJsYXN0dXBkYXRlX3V0Y3RpbWUwggEiMA0GCSqG
SIb3DQEBAQUAA4IBDwAwggEKAoIBAQC+lYb6cUxq6lGYUEuZoSxmFfNg8+H/afvO
SAEd/uEsOLDjvY9LSKd+OsZz46u/4dpulvX+w+S0qK28VjTUliV0J8MQ2zUQJRyO
S4Gb+0IEfG894jhsDuQujioYbTDNZyojazfPBZ/Mt1lYf7rECj+MpK3LmJzA8o9p
Zw/BTjPP/IVeu17Pk7DP2fRSeYex+E0VaGXVtxkIY39esTStBY9a8OThjyXyXFxh
lbBWLTErCGV55bE7nT65UkusXcRYZoWNgbMEKPQ/L6ySAWLV/Y4L2gIMesduCRys
HLJM11S4JjOyXxTzsfk9Yk1AmWu254lYl9bUTepLaFLzPKixNYjbAgMBAAGjgcQw
gcEwHQYDVR0OBBYEFKHfM8PPPlNBp2hEzKoZ4YTJDbzGMHQGA1UdIwRtMGuAFLQR
M/HX4l73U54gIhBPhga/H8leoT2kOzA5MQswCQYDVQQGEwJBVTEXMBUGA1UECgwO
RG9kZ3kgQnJvdGhlcnMxETAPBgNVBAMMCERvZGd5IENBghQoVoNc5yQ8Ph5KhbVj
WDGsaP77cDASBgNVHRMBAf8ECDAGAQH/AgEBMAsGA1UdDwQEAwIBBjAJBgNVHRIE
AjAAMA0GCSqGSIb3DQEBBQUAA4IBAQBZe8B9QSnW6vWoDJC9HLmDkijFeQO3OUYk
S1+ed7aQQR5JyRzOhDPe6FP+ImHZilC4iHwv1FQJPWM/7aHs8d7JoLxQrZpVmxH5
df6elgLSghICj/Lf9v0IXCw4Uuc92coMt026g4HCode5vKRTIkHRAwC65QV/hLYc
mpKhP8gsAJ6No/jTLbp9rhQY7Tt0qtoc1la9O05pDPthezFbQqxayx8CUuwRblO0
PRVPw0/mnDUoOz7qBpKz3tAjUaCeHFzlL9Znl6z2S1+YTpeGxblQTWdOT2McDlN1
W1RRgKxoeQt/WDgWv8LMy7KE8nyiVaZ320SDKV4nmiUq31C1dTJX
-----END CERTIFICATE-----
