Certificate:
    Data:
        Version: 3 (0x2)
        Serial Number:
            03:08:b7:d5:92:1f:bd:5a:12:66:c8:a0:c0:28:13:9b:08:59:b1:1e
        Signature Algorithm: sha1WithRSAEncryption
        Issuer: C=AU, O=Dodgy Brothers, CN=Dodgy CA
        Validity
            Not Before: Aug 13 04:37:11 2024 GMT
            Not After : Aug 13 04:37:11 2025 GMT
        Subject: C=AU, O=Dodgy Brothers, CN=Brother 1, CN=both_utctime
        Subject Public Key Info:
            Public Key Algorithm: rsaEncryption
                Public-Key: (2048 bit)
                Modulus:
                    00:be:95:86:fa:71:4c:6a:ea:51:98:50:4b:99:a1:
                    2c:66:15:f3:60:f3:e1:ff:69:fb:ce:48:01:1d:fe:
                    e1:2c:38:b0:e3:bd:8f:4b:48:a7:7e:3a:c6:73:e3:
                    ab:bf:e1:da:6e:96:f5:fe:c3:e4:b4:a8:ad:bc:56:
                    34:d4:96:25:74:27:c3:10:db:35:10:25:1c:8e:4b:
                    81:9b:fb:42:04:7c:6f:3d:e2:38:6c:0e:e4:2e:8e:
                    2a:18:6d:30:cd:67:2a:23:6b:37:cf:05:9f:cc:b7:
                    59:58:7f:ba:c4:0a:3f:8c:a4:ad:cb:98:9c:c0:f2:
                    8f:69:67:0f:c1:4e:33:cf:fc:85:5e:bb:5e:cf:93:
                    b0:cf:d9:f4:52:79:87:b1:f8:4d:15:68:65:d5:b7:
                    19:08:63:7f:5e:b1:34:ad:05:8f:5a:f0:e4:e1:8f:
                    25:f2:5c:5c:61:95:b0:56:2d:31:2b:08:65:79:e5:
                    b1:3b:9d:3e:b9:52:4b:ac:5d:c4:58:66:85:8d:81:
                    b3:04:28:f4:3f:2f:ac:92:01:62:d5:fd:8e:0b:da:
                    02:0c:7a:c7:6e:09:1c:ac:1c:b2:4c:d7:54:b8:26:
                    33:b2:5f:14:f3:b1:f9:3d:62:4d:40:99:6b:b6:e7:
                    89:58:97:d6:d4:4d:ea:4b:68:52:f3:3c:a8:b1:35:
                    88:db
                Exponent: 65537 (0x10001)
        X509v3 extensions:
            X509v3 Subject Key Identifier: 
                A1:DF:33:C3:CF:3E:53:41:A7:68:44:CC:AA:19:E1:84:C9:0D:BC:C6
            X509v3 Authority Key Identifier: 
                keyid:B4:11:33:F1:D7:E2:5E:F7:53:9E:20:22:10:4F:86:06:BF:1F:C9:5E
                DirName:/C=AU/O=Dodgy Brothers/CN=Dodgy CA
                serial:28:56:83:5C:E7:24:3C:3E:1E:4A:85:B5:63:58:31:AC:68:FE:FB:70
            X509v3 Basic Constraints: critical
                CA:TRUE, pathlen:1
            X509v3 Key Usage: 
                Certificate Sign, CRL Sign
            X509v3 Issuer Alternative Name: 
                <EMPTY>

    Signature Algorithm: sha1WithRSAEncryption
    Signature Value:
        70:3e:a9:04:83:ab:04:ca:40:7d:7f:bf:59:1b:68:d4:b2:29:
        91:48:8b:e4:86:7f:d6:67:a7:17:8b:a0:1c:72:22:08:eb:c8:
        e6:7d:09:db:a6:1a:11:b8:f8:5f:9d:6d:54:6b:2a:ab:e8:53:
        7e:d1:8e:81:fe:1e:4f:3d:99:67:f4:62:65:55:29:e4:bb:86:
        c6:56:f8:2a:48:d9:be:9f:46:a3:80:97:9c:0e:e8:db:df:e9:
        8c:4b:04:8e:a2:eb:46:fe:78:6d:f3:37:9d:c0:cf:5c:02:52:
        7c:98:ff:30:66:b9:c8:fc:06:5b:80:11:91:65:af:7f:61:95:
        fb:09:58:61:2b:e9:10:9f:7d:7e:58:e2:62:03:d7:1a:eb:aa:
        26:8f:dd:89:80:56:c6:ca:d8:68:84:85:3b:2f:db:2a:28:fc:
        e9:37:e0:88:ab:f8:64:7e:90:88:f8:65:3c:2c:fc:3f:6b:97:
        80:fa:22:06:52:66:4f:70:28:ac:00:8b:01:8d:e5:45:83:9a:
        ff:8f:41:2c:29:c3:68:12:53:4e:64:2f:17:2c:d7:e4:32:ed:
        70:a7:bc:4b:1b:25:31:3b:dc:76:ed:82:8d:fd:75:7c:c4:80:
        1b:fb:96:fe:96:b5:2d:f1:f4:44:66:47:6f:b6:4a:d4:3d:ad:
        82:7c:60:64
-----BEGIN CERTIFICATE-----
MIID3TCCAsWgAwIBAgIUAwi31ZIfvVoSZsigwCgTmwhZsR4wDQYJKoZIhvcNAQEF
BQAwOTELMAkGA1UEBhMCQVUxFzAVBgNVBAoMDkRvZGd5IEJyb3RoZXJzMREwDwYD
VQQDDAhEb2RneSBDQTAeFw0yNDA4MTMwNDM3MTFaFw0yNTA4MTMwNDM3MTFaMFEx
CzAJBgNVBAYTAkFVMRcwFQYDVQQKDA5Eb2RneSBCcm90aGVyczESMBAGA1UEAwwJ
QnJvdGhlciAxMRUwEwYDVQQDDAxib3RoX3V0Y3RpbWUwggEiMA0GCSqGSIb3DQEB
AQUAA4IBDwAwggEKAoIBAQC+lYb6cUxq6lGYUEuZoSxmFfNg8+H/afvOSAEd/uEs
OLDjvY9LSKd+OsZz46u/4dpulvX+w+S0qK28VjTUliV0J8MQ2zUQJRyOS4Gb+0IE
fG894jhsDuQujioYbTDNZyojazfPBZ/Mt1lYf7rECj+MpK3LmJzA8o9pZw/BTjPP
/IVeu17Pk7DP2fRSeYex+E0VaGXVtxkIY39esTStBY9a8OThjyXyXFxhlbBWLTEr
CGV55bE7nT65UkusXcRYZoWNgbMEKPQ/L6ySAWLV/Y4L2gIMesduCRysHLJM11S4
JjOyXxTzsfk9Yk1AmWu254lYl9bUTepLaFLzPKixNYjbAgMBAAGjgcQwgcEwHQYD
VR0OBBYEFKHfM8PPPlNBp2hEzKoZ4YTJDbzGMHQGA1UdIwRtMGuAFLQRM/HX4l73
U54gIhBPhga/H8leoT2kOzA5MQswCQYDVQQGEwJBVTEXMBUGA1UECgwORG9kZ3kg
QnJvdGhlcnMxETAPBgNVBAMMCERvZGd5IENBghQoVoNc5yQ8Ph5KhbVjWDGsaP77
cDASBgNVHRMBAf8ECDAGAQH/AgEBMAsGA1UdDwQEAwIBBjAJBgNVHRIEAjAAMA0G
CSqGSIb3DQEBBQUAA4IBAQBwPqkEg6sEykB9f79ZG2jUsimRSIvkhn/WZ6cXi6Ac
ciII68jmfQnbphoRuPhfnW1Uayqr6FN+0Y6B/h5PPZln9GJlVSnku4bGVvgqSNm+
n0ajgJecDujb3+mMSwSOoutG/nht8zedwM9cAlJ8mP8wZrnI/AZbgBGRZa9/YZX7
CVhhK+kQn31+WOJiA9ca66omj92JgFbGythohIU7L9sqKPzpN+CIq/hkfpCI+GU8
LPw/a5eA+iIGUmZPcCisAIsBjeVFg5r/j0EsKcNoElNOZC8XLNfkMu1wp7xLGyUx
O9x27YKN/XV8xIAb+5b+lrUt8fREZkdvtkrUPa2CfGBk
-----END CERTIFICATE-----
