Certificate:
    Data:
        Version: 3 (0x2)
        Serial Number:
            03:08:b7:d5:92:1f:bd:5a:12:66:c8:a0:c0:28:13:9b:08:59:b1:1a
        Signature Algorithm: sha1WithRSAEncryption
        Issuer: C=AU, O=Dodgy Brothers, CN=Dodgy CA
        Validity
            Not Before: Aug 13 04:37:09 2024 GMT
            Not After : Aug 13 04:37:09 2025 GMT
        Subject: C=AU, O=Dodgy Brothers, CN=Brother 1, CN=lastupdate_generalizedtime
        Subject Public Key Info:
            Public Key Algorithm: rsaEncryption
                Public-Key: (2048 bit)
                Modulus:
                    00:be:95:86:fa:71:4c:6a:ea:51:98:50:4b:99:a1:
                    2c:66:15:f3:60:f3:e1:ff:69:fb:ce:48:01:1d:fe:
                    e1:2c:38:b0:e3:bd:8f:4b:48:a7:7e:3a:c6:73:e3:
                    ab:bf:e1:da:6e:96:f5:fe:c3:e4:b4:a8:ad:bc:56:
                    34:d4:96:25:74:27:c3:10:db:35:10:25:1c:8e:4b:
                    81:9b:fb:42:04:7c:6f:3d:e2:38:6c:0e:e4:2e:8e:
                    2a:18:6d:30:cd:67:2a:23:6b:37:cf:05:9f:cc:b7:
                    59:58:7f:ba:c4:0a:3f:8c:a4:ad:cb:98:9c:c0:f2:
                    8f:69:67:0f:c1:4e:33:cf:fc:85:5e:bb:5e:cf:93:
                    b0:cf:d9:f4:52:79:87:b1:f8:4d:15:68:65:d5:b7:
                    19:08:63:7f:5e:b1:34:ad:05:8f:5a:f0:e4:e1:8f:
                    25:f2:5c:5c:61:95:b0:56:2d:31:2b:08:65:79:e5:
                    b1:3b:9d:3e:b9:52:4b:ac:5d:c4:58:66:85:8d:81:
                    b3:04:28:f4:3f:2f:ac:92:01:62:d5:fd:8e:0b:da:
                    02:0c:7a:c7:6e:09:1c:ac:1c:b2:4c:d7:54:b8:26:
                    33:b2:5f:14:f3:b1:f9:3d:62:4d:40:99:6b:b6:e7:
                    89:58:97:d6:d4:4d:ea:4b:68:52:f3:3c:a8:b1:35:
                    88:db
                Exponent: 65537 (0x10001)
        X509v3 extensions:
            X509v3 Subject Key Identifier: 
                A1:DF:33:C3:CF:3E:53:41:A7:68:44:CC:AA:19:E1:84:C9:0D:BC:C6
            X509v3 Authority Key Identifier: 
                keyid:B4:11:33:F1:D7:E2:5E:F7:53:9E:20:22:10:4F:86:06:BF:1F:C9:5E
                DirName:/C=AU/O=Dodgy Brothers/CN=Dodgy CA
                serial:28:56:83:5C:E7:24:3C:3E:1E:4A:85:B5:63:58:31:AC:68:FE:FB:70
            X509v3 Basic Constraints: critical
                CA:TRUE, pathlen:1
            X509v3 Key Usage: 
                Certificate Sign, CRL Sign
            X509v3 Issuer Alternative Name: 
                <EMPTY>

    Signature Algorithm: sha1WithRSAEncryption
    Signature Value:
        49:a7:43:13:1d:0c:38:55:3c:f6:78:ce:8f:94:b3:57:65:f9:
        c3:2e:55:0e:67:82:82:2f:5a:21:dc:9b:0e:1d:5a:da:66:a8:
        40:ed:c0:9e:ee:fc:ff:5b:f6:5f:4e:a9:19:3f:98:c9:29:3a:
        ee:81:b7:da:c6:63:15:ab:45:b4:bc:e9:03:43:24:f4:3a:f8:
        38:e2:ad:62:d4:c3:3b:91:f5:a4:c5:62:f3:7c:07:22:94:02:
        48:e4:ba:39:f2:e9:28:bb:57:49:eb:0c:3c:66:36:8f:aa:b2:
        7c:7b:43:2a:a5:a8:62:02:ac:41:2d:25:78:84:f5:2c:c7:29:
        e1:cc:b8:60:c7:95:87:64:f1:a0:47:d2:ad:2c:d9:dd:59:ec:
        8d:86:2d:61:32:44:71:f5:16:8c:3c:e7:38:ad:9d:b6:3d:0f:
        5e:cd:dd:6b:80:73:5b:68:ee:02:4e:eb:62:8f:f0:ba:ba:c5:
        a1:ea:dc:d7:4e:ba:c7:9b:26:d5:8b:1f:49:49:1e:5c:3a:01:
        01:26:92:f2:95:cc:9a:ed:e6:1b:6a:e8:bb:7b:36:92:ee:69:
        88:b4:b0:53:95:cb:07:cb:55:0f:62:f9:d0:dd:43:be:8c:a4:
        a5:04:f3:71:6f:14:ee:34:d2:1b:5a:ce:c6:bf:50:73:f7:c8:
        a1:be:43:a5
-----BEGIN CERTIFICATE-----
MIID6zCCAtOgAwIBAgIUAwi31ZIfvVoSZsigwCgTmwhZsRowDQYJKoZIhvcNAQEF
BQAwOTELMAkGA1UEBhMCQVUxFzAVBgNVBAoMDkRvZGd5IEJyb3RoZXJzMREwDwYD
VQQDDAhEb2RneSBDQTAeFw0yNDA4MTMwNDM3MDlaFw0yNTA4MTMwNDM3MDlaMF8x
CzAJBgNVBAYTAkFVMRcwFQYDVQQKDA5Eb2RneSBCcm90aGVyczESMBAGA1UEAwwJ
QnJvdGhlciAxMSMwIQYDVQQDDBpsYXN0dXBkYXRlX2dlbmVyYWxpemVkdGltZTCC
ASIwDQYJKoZIhvcNAQEBBQADggEPADCCAQoCggEBAL6VhvpxTGrqUZhQS5mhLGYV
82Dz4f9p+85IAR3+4Sw4sOO9j0tIp346xnPjq7/h2m6W9f7D5LSorbxWNNSWJXQn
wxDbNRAlHI5LgZv7QgR8bz3iOGwO5C6OKhhtMM1nKiNrN88Fn8y3WVh/usQKP4yk
rcuYnMDyj2lnD8FOM8/8hV67Xs+TsM/Z9FJ5h7H4TRVoZdW3GQhjf16xNK0Fj1rw
5OGPJfJcXGGVsFYtMSsIZXnlsTudPrlSS6xdxFhmhY2BswQo9D8vrJIBYtX9jgva
Agx6x24JHKwcskzXVLgmM7JfFPOx+T1iTUCZa7bniViX1tRN6ktoUvM8qLE1iNsC
AwEAAaOBxDCBwTAdBgNVHQ4EFgQUod8zw88+U0GnaETMqhnhhMkNvMYwdAYDVR0j
BG0wa4AUtBEz8dfiXvdTniAiEE+GBr8fyV6hPaQ7MDkxCzAJBgNVBAYTAkFVMRcw
FQYDVQQKDA5Eb2RneSBCcm90aGVyczERMA8GA1UEAwwIRG9kZ3kgQ0GCFChWg1zn
JDw+HkqFtWNYMaxo/vtwMBIGA1UdEwEB/wQIMAYBAf8CAQEwCwYDVR0PBAQDAgEG
MAkGA1UdEgQCMAAwDQYJKoZIhvcNAQEFBQADggEBAEmnQxMdDDhVPPZ4zo+Us1dl
+cMuVQ5ngoIvWiHcmw4dWtpmqEDtwJ7u/P9b9l9OqRk/mMkpOu6Bt9rGYxWrRbS8
6QNDJPQ6+DjirWLUwzuR9aTFYvN8ByKUAkjkujny6Si7V0nrDDxmNo+qsnx7Qyql
qGICrEEtJXiE9SzHKeHMuGDHlYdk8aBH0q0s2d1Z7I2GLWEyRHH1Fow85zitnbY9
D17N3WuAc1to7gJO62KP8Lq6xaHq3NdOusebJtWLH0lJHlw6AQEmkvKVzJrt5htq
6Lt7NpLuaYi0sFOVywfLVQ9i+dDdQ76MpKUE83FvFO400htazsa/UHP3yKG+Q6U=
-----END CERTIFICATE-----
