Certificate:
    Data:
        Version: 3 (0x2)
        Serial Number:
            03:08:b7:d5:92:1f:bd:5a:12:66:c8:a0:c0:28:13:9b:08:59:b1:15
        Signature Algorithm: SM2-with-SM3
        Issuer: C=CN, ST=LN, L=Shenyang, O=Test Org, OU=Test OU, CN=Test SM2 CA
        Validity
            Not Before: Aug 13 04:37:07 2024 GMT
            Not After : Aug 13 04:37:07 2025 GMT
        Subject: C=CN, ST=Liaoning, L=Shenyang, O=Tet, OU=Tet, CN=oo/emailAddress=oo@oo.oo
        Subject Public Key Info:
            Public Key Algorithm: id-ecPublicKey
                Public-Key: (256 bit)
                pub:
                    04:d4:d8:dd:3a:99:5d:72:34:e4:b9:9a:5d:18:33:
                    72:1c:09:e1:2b:d7:01:d9:16:7b:8c:09:85:ce:de:
                    e3:80:4b:3d:38:74:a0:ad:bd:dc:ae:3c:fe:a8:66:
                    5f:ab:22:79:03:26:6e:95:0e:e0:74:04:73:6f:51:
                    f9:e6:3b:f0:e6
                ASN1 OID: SM2
        X509v3 extensions:
            X509v3 Subject Key Identifier: 
                F6:52:D4:54:D4:26:10:46:F6:AA:D3:B4:8C:E6:F7:5A:BC:B0:2A:B3
            X509v3 Authority Key Identifier: 
                keyid:C5:8D:C5:AE:FF:32:60:49:9E:52:29:49:54:E5:5C:78:FF:45:B9:74
                DirName:/C=CN/ST=LN/L=Shenyang/O=Test Org/OU=Test OU/CN=Test SM2 CA
                serial:E9:64:A4:3A:52:AE:65:5B
            X509v3 Basic Constraints: critical
                CA:TRUE, pathlen:1
            X509v3 Key Usage: 
                Certificate Sign, CRL Sign
            X509v3 Issuer Alternative Name: 
                <EMPTY>

    Signature Algorithm: SM2-with-SM3
    Signature Value:
        30:46:02:21:00:b4:fd:9d:a3:2d:e6:ae:3f:d2:42:8c:0e:bf:
        3d:73:cb:88:64:f8:c7:41:72:42:67:d6:23:52:a3:3e:07:26:
        49:02:21:00:b3:ec:ff:1b:b4:22:87:36:af:53:3a:cb:10:f4:
        58:9c:22:25:86:15:8a:52:c5:8b:8d:81:40:da:14:19:66:45
-----BEGIN CERTIFICATE-----
MIICzDCCAnGgAwIBAgIUAwi31ZIfvVoSZsigwCgTmwhZsRUwCgYIKoEcz1UBg3Uw
aDELMAkGA1UEBhMCQ04xCzAJBgNVBAgMAkxOMREwDwYDVQQHDAhTaGVueWFuZzER
MA8GA1UECgwIVGVzdCBPcmcxEDAOBgNVBAsMB1Rlc3QgT1UxFDASBgNVBAMMC1Rl
c3QgU00yIENBMB4XDTI0MDgxMzA0MzcwN1oXDTI1MDgxMzA0MzcwN1owdTELMAkG
A1UEBhMCQ04xETAPBgNVBAgMCExpYW9uaW5nMREwDwYDVQQHDAhTaGVueWFuZzEM
MAoGA1UECgwDVGV0MQwwCgYDVQQLDANUZXQxCzAJBgNVBAMMAm9vMRcwFQYJKoZI
hvcNAQkBFghvb0Bvby5vbzBZMBMGByqGSM49AgEGCCqBHM9VAYItA0IABNTY3TqZ
XXI05LmaXRgzchwJ4SvXAdkWe4wJhc7e44BLPTh0oK293K48/qhmX6sieQMmbpUO
4HQEc29R+eY78OajgeswgegwHQYDVR0OBBYEFPZS1FTUJhBG9qrTtIzm91q8sCqz
MIGaBgNVHSMEgZIwgY+AFMWNxa7/MmBJnlIpSVTlXHj/Rbl0oWykajBoMQswCQYD
VQQGEwJDTjELMAkGA1UECAwCTE4xETAPBgNVBAcMCFNoZW55YW5nMREwDwYDVQQK
DAhUZXN0IE9yZzEQMA4GA1UECwwHVGVzdCBPVTEUMBIGA1UEAwwLVGVzdCBTTTIg
Q0GCCQDpZKQ6Uq5lWzASBgNVHRMBAf8ECDAGAQH/AgEBMAsGA1UdDwQEAwIBBjAJ
BgNVHRIEAjAAMAoGCCqBHM9VAYN1A0kAMEYCIQC0/Z2jLeauP9JCjA6/PXPLiGT4
x0FyQmfWI1KjPgcmSQIhALPs/xu0Ioc2r1M6yxD0WJwiJYYVilLFi42BQNoUGWZF
-----END CERTIFICATE-----
