Certificate:
    Data:
        Version: 3 (0x2)
        Serial Number:
            03:08:b7:d5:92:1f:bd:5a:12:66:c8:a0:c0:28:13:9b:08:59:b1:14
        Signature Algorithm: sha256WithRSAEncryption
        Issuer: C=AU, O=Dodgy Brothers, CN=Dodgy CA
        Validity
            Not Before: Aug 13 04:37:06 2024 GMT
            Not After : Aug 13 04:37:06 2025 GMT
        Subject: C=AU, O=Dodgy Brothers, CN=Brother 1, CN=Brother 2
        Subject Public Key Info:
            Public Key Algorithm: rsaEncryption
                Public-Key: (2048 bit)
                Modulus:
                    00:a8:ff:89:58:61:85:ae:de:db:2c:0f:d5:73:fb:
                    e2:b7:a8:1b:7a:75:60:2b:d4:7d:3c:73:76:b5:ae:
                    de:93:2f:7f:24:90:6d:c9:1c:f4:8a:38:cd:9f:a2:
                    80:16:56:cb:b4:2c:bb:93:e5:17:1f:ff:0d:c6:43:
                    fe:31:34:f8:28:d8:75:e9:a3:bb:88:82:ef:a3:72:
                    e2:53:62:05:45:4d:e0:31:97:ef:aa:9d:10:d2:58:
                    0d:9e:06:9e:32:bb:1b:08:56:5d:65:0f:3f:66:8e:
                    c2:36:a0:11:ff:c0:59:35:fd:49:1c:dd:1c:42:33:
                    06:78:ae:04:38:23:e5:e7:75:67:d3:94:ad:5a:a9:
                    40:1f:ac:59:10:f5:0c:c1:64:ad:4a:c4:c6:35:53:
                    b3:96:6a:82:1b:15:8b:d1:99:ab:e4:9e:6f:94:aa:
                    d2:96:e5:57:fb:8c:91:64:8a:3c:24:16:c6:d2:19:
                    be:82:60:13:3b:62:b0:ed:3e:1d:b3:ca:f9:6b:df:
                    31:b9:7a:9e:4b:47:68:a7:29:c7:3f:4a:e2:22:27:
                    b4:ef:90:63:d7:ef:d0:72:49:3e:5b:ad:b9:1b:d4:
                    2b:6f:86:68:dd:d5:73:12:b8:43:c9:dc:41:0f:a2:
                    a3:46:4f:8b:67:88:84:0f:61:fe:79:34:1f:4a:89:
                    1f:b7
                Exponent: 65537 (0x10001)
        X509v3 extensions:
            X509v3 Basic Constraints: 
                CA:FALSE
            X509v3 Subject Key Identifier: 
                E7:9B:E2:2A:AD:8A:6C:3A:CB:76:51:E5:8E:07:98:22:97:E1:73:A2
            X509v3 Authority Key Identifier: 
                B4:11:33:F1:D7:E2:5E:F7:53:9E:20:22:10:4F:86:06:BF:1F:C9:5E
    Signature Algorithm: sha256WithRSAEncryption
    Signature Value:
        54:9f:60:af:99:b0:5c:77:6f:3b:19:b3:c8:68:8b:73:62:84:
        21:2b:5b:f1:e1:f2:c9:ef:7e:c5:dc:de:6f:b9:0d:3a:34:67:
        46:b7:3c:dd:14:80:14:4b:8d:41:c6:e3:ca:30:a6:b3:37:24:
        14:a0:af:9b:ff:41:8c:cc:57:e5:b1:14:10:05:44:2a:fa:e6:
        18:37:24:38:a3:d3:fb:08:3a:6f:e4:28:db:12:d9:01:c6:10:
        2b:6e:3e:fc:e2:de:e1:5f:ac:08:44:ac:07:31:84:33:e0:84:
        72:51:84:86:80:92:43:21:8c:ac:a8:53:94:ea:5c:90:24:d6:
        98:55:22:6d:64:53:96:6c:f2:8f:9a:42:21:1a:4b:43:1c:6b:
        58:88:bb:49:58:d9:48:92:61:7d:09:78:de:5f:ad:42:5d:b4:
        ea:96:42:a8:60:c2:99:68:89:e0:f8:38:34:25:6e:18:1d:ce:
        8f:b0:82:a3:04:58:63:6d:7d:88:2c:65:31:75:49:b3:09:ad:
        f4:25:25:7c:c7:84:f0:c1:e0:7d:ea:75:11:03:71:1b:8e:be:
        2c:7d:ee:32:f8:dd:a9:5d:49:6c:9b:89:ba:2f:07:e6:b7:ac:
        ef:4d:f1:2c:d7:7b:4c:4f:34:3c:23:1f:32:3c:f7:67:15:dd:
        78:5b:1c:ac
-----BEGIN CERTIFICATE-----
MIIDYjCCAkqgAwIBAgIUAwi31ZIfvVoSZsigwCgTmwhZsRQwDQYJKoZIhvcNAQEL
BQAwOTELMAkGA1UEBhMCQVUxFzAVBgNVBAoMDkRvZGd5IEJyb3RoZXJzMREwDwYD
VQQDDAhEb2RneSBDQTAeFw0yNDA4MTMwNDM3MDZaFw0yNTA4MTMwNDM3MDZaME4x
CzAJBgNVBAYTAkFVMRcwFQYDVQQKDA5Eb2RneSBCcm90aGVyczESMBAGA1UEAwwJ
QnJvdGhlciAxMRIwEAYDVQQDDAlCcm90aGVyIDIwggEiMA0GCSqGSIb3DQEBAQUA
A4IBDwAwggEKAoIBAQCo/4lYYYWu3tssD9Vz++K3qBt6dWAr1H08c3a1rt6TL38k
kG3JHPSKOM2fooAWVsu0LLuT5Rcf/w3GQ/4xNPgo2HXpo7uIgu+jcuJTYgVFTeAx
l++qnRDSWA2eBp4yuxsIVl1lDz9mjsI2oBH/wFk1/Ukc3RxCMwZ4rgQ4I+XndWfT
lK1aqUAfrFkQ9QzBZK1KxMY1U7OWaoIbFYvRmavknm+UqtKW5Vf7jJFkijwkFsbS
Gb6CYBM7YrDtPh2zyvlr3zG5ep5LR2inKcc/SuIiJ7TvkGPX79ByST5brbkb1Ctv
hmjd1XMSuEPJ3EEPoqNGT4tniIQPYf55NB9KiR+3AgMBAAGjTTBLMAkGA1UdEwQC
MAAwHQYDVR0OBBYEFOeb4iqtimw6y3ZR5Y4HmCKX4XOiMB8GA1UdIwQYMBaAFLQR
M/HX4l73U54gIhBPhga/H8leMA0GCSqGSIb3DQEBCwUAA4IBAQBUn2CvmbBcd287
GbPIaItzYoQhK1vx4fLJ737F3N5vuQ06NGdGtzzdFIAUS41BxuPKMKazNyQUoK+b
/0GMzFflsRQQBUQq+uYYNyQ4o9P7CDpv5CjbEtkBxhArbj784t7hX6wIRKwHMYQz
4IRyUYSGgJJDIYysqFOU6lyQJNaYVSJtZFOWbPKPmkIhGktDHGtYiLtJWNlIkmF9
CXjeX61CXbTqlkKoYMKZaIng+Dg0JW4YHc6PsIKjBFhjbX2ILGUxdUmzCa30JSV8
x4TwweB96nURA3Ebjr4sfe4y+N2pXUlsm4m6Lwfmt6zvTfEs13tMTzQ8Ix8yPPdn
Fd14Wxys
-----END CERTIFICATE-----
