Certificate:
    Data:
        Version: 3 (0x2)
        Serial Number:
            28:56:83:5c:e7:24:3c:3e:1e:4a:85:b5:63:58:31:ac:68:fe:fb:70
        Signature Algorithm: sha1WithRSAEncryption
        Issuer: C=AU, O=Dodgy Brothers, CN=Dodgy CA
        Validity
            Not Before: Aug 13 04:37:06 2024 GMT
            Not After : Aug 13 04:37:06 2027 GMT
        Subject: C=AU, O=Dodgy Brothers, CN=Dodgy CA
        Subject Public Key Info:
            Public Key Algorithm: rsaEncryption
                Public-Key: (2048 bit)
                Modulus:
                    00:96:9d:a4:3d:00:4b:1c:5f:c6:cb:dd:8f:d2:31:
                    b2:88:15:cc:c4:86:2c:5c:e2:69:8b:84:f4:a7:a3:
                    53:df:91:e3:bf:51:89:fb:f0:7c:10:0d:3b:ad:ac:
                    35:62:75:f5:7f:ff:f4:6e:54:8f:05:a6:92:23:b3:
                    9f:59:39:d0:39:18:b0:10:40:de:62:73:8a:4e:b0:
                    8e:df:dc:e7:c9:41:22:54:84:80:08:29:bc:35:3c:
                    86:df:30:de:dd:b4:24:ff:7e:62:a5:c0:7a:e8:2a:
                    16:3f:d6:97:da:c5:42:db:2f:69:64:91:cb:08:d7:
                    56:5a:79:7f:1b:84:41:e9:4d:9d:77:09:10:a8:6c:
                    29:33:44:c6:c0:54:65:e6:e8:e3:f2:75:05:6a:64:
                    95:6c:c0:f4:fd:25:61:6e:48:36:f0:c0:03:07:05:
                    d6:7c:e5:11:fd:18:e8:4a:2d:d3:72:0c:37:28:36:
                    31:31:38:85:e8:71:8d:d8:02:49:c8:bc:19:89:c5:
                    8a:b1:3f:a2:35:ea:aa:90:1c:64:68:7b:af:67:6a:
                    5a:06:54:0f:50:e1:f9:b4:f6:be:3a:d4:ce:3f:1e:
                    4c:7d:c6:77:32:3e:a2:58:ed:db:dd:74:d8:92:14:
                    6a:a8:f7:cb:34:58:91:a8:7c:14:b1:7d:08:b3:4d:
                    b1:47
                Exponent: 65537 (0x10001)
        X509v3 extensions:
            X509v3 Subject Key Identifier: 
                B4:11:33:F1:D7:E2:5E:F7:53:9E:20:22:10:4F:86:06:BF:1F:C9:5E
            X509v3 Authority Key Identifier: 
                keyid:B4:11:33:F1:D7:E2:5E:F7:53:9E:20:22:10:4F:86:06:BF:1F:C9:5E
                DirName:/C=AU/O=Dodgy Brothers/CN=Dodgy CA
                serial:28:56:83:5C:E7:24:3C:3E:1E:4A:85:B5:63:58:31:AC:68:FE:FB:70
            X509v3 Basic Constraints: critical
                CA:TRUE, pathlen:1
            X509v3 Key Usage: 
                Certificate Sign, CRL Sign
            X509v3 Issuer Alternative Name: 
                <EMPTY>

    Signature Algorithm: sha1WithRSAEncryption
    Signature Value:
        47:63:a3:4a:59:86:ff:65:3c:84:4d:a9:9d:00:58:71:54:be:
        89:24:01:db:3c:a9:0a:61:42:cf:07:f7:ea:95:2f:1f:f5:d4:
        49:c5:45:9f:a6:a9:bb:4b:f2:aa:97:83:f1:30:d0:2c:7a:c7:
        4b:85:87:93:a7:7c:cf:44:1e:48:47:e7:24:7a:39:10:2a:eb:
        55:e8:51:43:27:97:a7:43:6e:b6:b0:be:3c:54:3c:9f:d1:81:
        47:46:b7:fa:f9:07:a3:d3:3a:71:09:71:10:41:fd:93:64:b3:
        e8:00:4a:9b:84:f8:81:23:31:95:25:51:68:22:ad:44:55:34:
        c7:b1:8b:2d:77:ab:a2:fd:ae:b2:f5:38:94:b2:f0:d4:19:ba:
        87:21:f8:5b:5c:80:5b:2c:5e:88:0a:8e:26:2c:48:cd:b9:e8:
        16:95:76:7f:04:08:01:c4:ec:e9:10:1b:c6:91:79:82:33:e6:
        79:fb:92:53:36:eb:ba:04:cb:55:8b:cf:21:bb:74:0d:6c:c1:
        8a:d5:16:30:f1:00:fa:89:16:50:cf:c3:79:ee:ee:55:c7:03:
        c5:ec:d9:db:7c:7d:bb:9d:6f:6a:f1:61:2a:df:1d:a8:89:b9:
        cd:52:54:1d:14:df:49:c4:21:25:99:de:13:fa:09:73:81:ab:
        9f:4e:df:00
-----BEGIN CERTIFICATE-----
MIIDxTCCAq2gAwIBAgIUKFaDXOckPD4eSoW1Y1gxrGj++3AwDQYJKoZIhvcNAQEF
BQAwOTELMAkGA1UEBhMCQVUxFzAVBgNVBAoMDkRvZGd5IEJyb3RoZXJzMREwDwYD
VQQDDAhEb2RneSBDQTAeFw0yNDA4MTMwNDM3MDZaFw0yNzA4MTMwNDM3MDZaMDkx
CzAJBgNVBAYTAkFVMRcwFQYDVQQKDA5Eb2RneSBCcm90aGVyczERMA8GA1UEAwwI
RG9kZ3kgQ0EwggEiMA0GCSqGSIb3DQEBAQUAA4IBDwAwggEKAoIBAQCWnaQ9AEsc
X8bL3Y/SMbKIFczEhixc4mmLhPSno1PfkeO/UYn78HwQDTutrDVidfV///RuVI8F
ppIjs59ZOdA5GLAQQN5ic4pOsI7f3OfJQSJUhIAIKbw1PIbfMN7dtCT/fmKlwHro
KhY/1pfaxULbL2lkkcsI11ZaeX8bhEHpTZ13CRCobCkzRMbAVGXm6OPydQVqZJVs
wPT9JWFuSDbwwAMHBdZ85RH9GOhKLdNyDDcoNjExOIXocY3YAknIvBmJxYqxP6I1
6qqQHGRoe69naloGVA9Q4fm09r461M4/Hkx9xncyPqJY7dvddNiSFGqo98s0WJGo
fBSxfQizTbFHAgMBAAGjgcQwgcEwHQYDVR0OBBYEFLQRM/HX4l73U54gIhBPhga/
H8leMHQGA1UdIwRtMGuAFLQRM/HX4l73U54gIhBPhga/H8leoT2kOzA5MQswCQYD
VQQGEwJBVTEXMBUGA1UECgwORG9kZ3kgQnJvdGhlcnMxETAPBgNVBAMMCERvZGd5
IENBghQoVoNc5yQ8Ph5KhbVjWDGsaP77cDASBgNVHRMBAf8ECDAGAQH/AgEBMAsG
A1UdDwQEAwIBBjAJBgNVHRIEAjAAMA0GCSqGSIb3DQEBBQUAA4IBAQBHY6NKWYb/
ZTyETamdAFhxVL6JJAHbPKkKYULPB/fqlS8f9dRJxUWfpqm7S/Kql4PxMNAsesdL
hYeTp3zPRB5IR+ckejkQKutV6FFDJ5enQ262sL48VDyf0YFHRrf6+Qej0zpxCXEQ
Qf2TZLPoAEqbhPiBIzGVJVFoIq1EVTTHsYstd6ui/a6y9TiUsvDUGbqHIfhbXIBb
LF6ICo4mLEjNuegWlXZ/BAgBxOzpEBvGkXmCM+Z5+5JTNuu6BMtVi88hu3QNbMGK
1RYw8QD6iRZQz8N57u5VxwPF7NnbfH27nW9q8WEq3x2oibnNUlQdFN9JxCElmd4T
+glzgaufTt8A
-----END CERTIFICATE-----
