Certificate:
    Data:
        Version: 3 (0x2)
        Serial Number: 1234567890 (0x499602d2)
        Signature Algorithm: sha256WithRSAEncryption
        Issuer: CN=ca.example.com
        Validity
            Not Before: Aug 13 04:34:17 2024 GMT
            Not After : Aug 13 04:34:17 2025 GMT
        Subject: CN=test.example.com
        Subject Public Key Info:
            Public Key Algorithm: rsaEncryption
                Public-Key: (2048 bit)
                Modulus:
                    00:8c:bb:25:54:83:c4:f4:41:6a:83:e8:0c:d3:55:
                    c6:ae:22:ee:fc:68:fd:49:e8:4c:4b:2d:35:2c:5a:
                    15:82:38:ef:a7:ec:f8:c8:19:63:0b:b8:8c:b5:59:
                    1c:4c:98:18:38:ee:d9:0b:da:45:2f:1b:34:34:e7:
                    96:19:17:d4:59:d2:a0:99:cf:e7:e6:15:f0:16:0d:
                    e3:d3:c7:bf:72:4e:1e:c4:cb:68:40:3e:41:fe:c2:
                    a9:26:58:ef:30:78:de:7d:1a:8d:fa:d2:0e:ee:f8:
                    e8:2e:09:ab:3c:0f:a7:26:14:6c:f5:ea:40:6f:27:
                    8f:4d:f3:1b:bf:c4:f9:f0:bc:22:7a:c8:16:b2:9b:
                    c1:c5:45:3c:49:9e:7e:9c:36:2b:a6:43:a9:77:85:
                    65:ba:11:82:57:7d:68:01:02:ac:21:ce:63:22:1b:
                    ab:e1:bd:38:d8:84:50:c4:03:ad:98:7d:30:ee:d2:
                    c2:3e:54:33:b4:a5:2c:98:a1:b6:fc:76:d2:25:6b:
                    ec:15:e4:b7:71:28:91:cb:d7:f2:75:7c:87:4f:79:
                    85:73:84:9f:dc:93:bc:51:fe:a8:1a:22:2a:fc:6e:
                    29:51:cf:1e:66:85:d2:49:fc:49:3f:3e:00:a2:68:
                    f5:a6:88:83:ee:0d:dd:f0:70:ab:b9:10:a7:ee:b4:
                    a9:65
                Exponent: 65537 (0x10001)
        X509v3 extensions:
            X509v3 Subject Key Identifier: 
                0F:47:C3:98:8E:B1:13:1F:17:61:71:55:EB:D0:6B:35:5F:DC:57:D2
            X509v3 Authority Key Identifier: 
                0F:47:C3:98:8E:B1:13:1F:17:61:71:55:EB:D0:6B:35:5F:DC:57:D2
            X509v3 Basic Constraints: critical
                CA:TRUE
    Signature Algorithm: sha256WithRSAEncryption
    Signature Value:
        62:28:cf:43:14:72:ec:cd:6a:85:bf:4e:5f:db:1a:f8:c3:67:
        27:b2:21:2a:66:bb:3b:04:b4:4c:17:10:4f:77:26:2e:a4:51:
        dc:1c:8a:36:8f:de:27:ef:dd:59:e1:58:cd:82:47:04:cc:6d:
        4d:81:fd:19:8a:33:18:ee:4c:62:a4:8d:5a:ab:b8:f4:38:c4:
        1c:e3:89:2d:d2:75:c9:39:52:9d:19:15:4d:07:03:0f:9a:10:
        27:ae:bd:6a:d2:a9:b6:e6:ff:17:ca:a0:d1:16:2c:c3:a3:85:
        c6:8b:ad:02:26:ad:b4:7b:1a:a3:3b:11:dd:a3:0c:59:c7:c5:
        6f:bd:e6:2a:24:5f:b5:da:80:40:6a:e5:ad:ef:02:67:20:ff:
        24:17:10:94:80:0d:a3:df:30:fd:c1:b9:9c:b3:39:a8:1e:6d:
        53:77:dc:7d:c3:91:11:37:e0:d6:f1:5f:9e:4e:d9:45:48:46:
        10:43:5a:03:72:bc:eb:06:91:7c:27:f8:2c:ee:54:29:c5:b0:
        c7:b2:85:d4:08:b4:04:57:03:77:ff:8c:32:08:13:44:99:bd:
        32:61:d7:d6:8e:f1:44:f0:d3:74:06:d5:5f:0b:28:af:44:95:
        23:bc:b0:6e:19:76:78:c5:af:80:cb:0f:82:d7:fe:6f:05:dc:
        16:2f:0c:56:e9:2a:2d:77:de:b0:6c:54:a1:ac:48:94:e9:59:
        90:89:73:b2:65:c9:84:17:ae:40:7c:1e:fd:d7:ba:e9:24:46:
        1d:55:7e:bb:03:f8:64:55:15:7f:3a:bb:e5:3d:27:16:f4:ca:
        b2:b5:4e:22:5c:5b:8a:33:24:ec:75:ab:cd:28:c9:97:09:40:
        1f:73:e3:49:2e:e4:db:46:84:93:76:fb:e7:7c:c6:c8:13:cb:
        93:67:0b:88:da:02:aa:bf:70:0a:25:77:03:5b:b4:00:97:68:
        a1:3d:6e:74:74:43:d7:32:ec:64:0a:5c:c2:ba:74:82:cf:27:
        5a:e9:89:af:0e:0a:7d:c3:22:c6:45:c2:71:76:53:22:6b:8d:
        59:7e:cc:9e:8b:0a:d4:90:da:df:c9:e7:b1:72:be:12:38:18:
        72:ef:99:98:79:14:0c:51:04:f7:c8:5e:b3:27:75:01:f4:e2:
        f1:d8:ec:0e:24:a0:f9:c7:6c:f4:15:e5:bc:7d:7f:a9:df:e3:
        fd:19:4a:97:e3:ec:f2:e0:90:f6:ce:9b:9d:62:c1:b3:ba:8e:
        b6:bc:41:b8:69:e7:d9:3c:44:09:e9:54:ca:7d:c2:21:1b:d1:
        ae:93:a7:da:bc:1e:14:3c:35:24:31:48:a1:6c:f3:b9:d1:87:
        f3:4e:49:3c:b0:0c:cc:af
-----BEGIN CERTIFICATE-----
MIIEBTCCAe2gAwIBAgIESZYC0jANBgkqhkiG9w0BAQsFADAZMRcwFQYDVQQDDA5j
YS5leGFtcGxlLmNvbTAeFw0yNDA4MTMwNDM0MTdaFw0yNTA4MTMwNDM0MTdaMBsx
GTAXBgNVBAMMEHRlc3QuZXhhbXBsZS5jb20wggEiMA0GCSqGSIb3DQEBAQUAA4IB
DwAwggEKAoIBAQCMuyVUg8T0QWqD6AzTVcauIu78aP1J6ExLLTUsWhWCOO+n7PjI
GWMLuIy1WRxMmBg47tkL2kUvGzQ055YZF9RZ0qCZz+fmFfAWDePTx79yTh7Ey2hA
PkH+wqkmWO8weN59Go360g7u+OguCas8D6cmFGz16kBvJ49N8xu/xPnwvCJ6yBay
m8HFRTxJnn6cNiumQ6l3hWW6EYJXfWgBAqwhzmMiG6vhvTjYhFDEA62YfTDu0sI+
VDO0pSyYobb8dtIla+wV5LdxKJHL1/J1fIdPeYVzhJ/ck7xR/qgaIir8bilRzx5m
hdJJ/Ek/PgCiaPWmiIPuDd3wcKu5EKfutKllAgMBAAGjUzBRMB0GA1UdDgQWBBQP
R8OYjrETHxdhcVXr0Gs1X9xX0jAfBgNVHSMEGDAWgBQPR8OYjrETHxdhcVXr0Gs1
X9xX0jAPBgNVHRMBAf8EBTADAQH/MA0GCSqGSIb3DQEBCwUAA4ICAQBiKM9DFHLs
zWqFv05f2xr4w2cnsiEqZrs7BLRMFxBPdyYupFHcHIo2j94n791Z4VjNgkcEzG1N
gf0ZijMY7kxipI1aq7j0OMQc44kt0nXJOVKdGRVNBwMPmhAnrr1q0qm25v8XyqDR
FizDo4XGi60CJq20exqjOxHdowxZx8VvveYqJF+12oBAauWt7wJnIP8kFxCUgA2j
3zD9wbmcszmoHm1Td9x9w5ERN+DW8V+eTtlFSEYQQ1oDcrzrBpF8J/gs7lQpxbDH
soXUCLQEVwN3/4wyCBNEmb0yYdfWjvFE8NN0BtVfCyivRJUjvLBuGXZ4xa+Ayw+C
1/5vBdwWLwxW6Sotd96wbFShrEiU6VmQiXOyZcmEF65AfB7917rpJEYdVX67A/hk
VRV/OrvlPScW9MqytU4iXFuKMyTsdavNKMmXCUAfc+NJLuTbRoSTdvvnfMbIE8uT
ZwuI2gKqv3AKJXcDW7QAl2ihPW50dEPXMuxkClzCunSCzyda6YmvDgp9wyLGRcJx
dlMia41ZfsyeiwrUkNrfyeexcr4SOBhy75mYeRQMUQT3yF6zJ3UB9OLx2OwOJKD5
x2z0FeW8fX+p3+P9GUqX4+zy4JD2zpudYsGzuo62vEG4aefZPEQJ6VTKfcIhG9Gu
k6favB4UPDUkMUihbPO50YfzTkk8sAzMrw==
-----END CERTIFICATE-----
