Certificate:
    Data:
        Version: 3 (0x2)
        Serial Number:
            15:90:79:87:58:b1:8f:4c:90:ea:0d:d9:b1:52:0d:b7:ef:7e:0a:e9
        Signature Algorithm: sha256WithRSAEncryption
        Issuer: CN=ca.example.com
        Validity
            Not Before: Aug 13 04:34:18 2024 GMT
            Not After : Sep 12 04:34:18 2024 GMT
        Subject: CN=b.example.com
        Subject Public Key Info:
            Public Key Algorithm: rsaEncryption
                Public-Key: (4096 bit)
                Modulus:
                    00:ae:3a:97:49:d6:83:ee:5a:38:e0:d3:f2:80:46:
                    f0:27:f4:39:06:3e:b9:34:f3:7f:cd:23:a0:79:22:
                    1a:8a:4e:c9:e6:c8:f6:bd:4c:fa:11:d7:c6:f3:0b:
                    2a:5f:2e:a5:39:a3:19:13:2d:45:fc:e7:83:c0:9e:
                    ca:0f:98:5d:00:ee:72:18:a4:a8:a5:fc:9c:88:87:
                    9a:ec:57:3e:f4:5f:9b:93:8f:6e:2c:55:08:fa:1c:
                    d2:e7:ea:d8:93:1a:1a:85:88:cd:3f:99:95:ad:6a:
                    e0:13:d3:de:8f:dc:59:7b:fb:48:a2:d1:5c:a8:9f:
                    c0:ab:83:34:b6:40:a2:98:55:32:9a:c9:82:42:7d:
                    00:40:d2:70:06:c6:77:80:f4:97:ea:b2:d6:a7:ad:
                    b2:bc:1c:48:6a:ec:e2:cf:b2:dd:cc:fb:10:89:2e:
                    8f:85:74:94:df:fa:fb:ac:6f:56:18:1b:45:e9:b7:
                    b5:16:35:53:b1:24:b3:69:2f:58:78:7b:9c:ca:92:
                    52:31:83:81:ee:c8:1e:2c:ff:35:32:0f:34:3e:7f:
                    7b:06:65:ec:8a:73:ab:50:14:0a:2c:1e:7e:fd:91:
                    8f:87:eb:cd:fb:b0:ee:69:61:6a:80:b0:ed:fc:06:
                    f9:49:09:85:61:45:a8:55:0c:0f:a0:2c:a4:12:97:
                    b9:e3:0f:0d:8c:15:2a:b1:88:5b:6f:26:81:0b:32:
                    4d:10:01:21:6b:d5:31:7a:a2:57:b8:06:97:21:e0:
                    a3:27:17:1e:9b:43:ec:a5:1d:1a:85:80:8c:f3:e7:
                    b3:67:92:97:f0:8f:bb:83:13:d3:ee:19:45:b4:2c:
                    b2:37:ef:8f:0e:5f:0f:77:d7:93:63:c9:c8:f8:19:
                    36:d1:bf:c1:d8:16:b4:0c:81:61:48:6d:82:8a:dc:
                    31:7b:46:33:53:4e:e5:07:b6:ab:73:ca:cc:e5:1d:
                    3e:08:44:52:56:76:b9:53:41:2c:94:12:da:c8:82:
                    c3:39:03:26:b8:cc:b7:f3:57:c1:45:a4:05:bc:e1:
                    5b:6e:b2:c0:3a:cc:06:de:42:dd:db:14:49:d8:ef:
                    a6:dd:8c:4d:33:21:98:60:ca:bf:0b:b6:ec:5f:14:
                    d7:7d:e4:9e:9f:70:93:18:36:b9:61:d6:99:1a:8b:
                    c6:86:16:83:08:4b:16:3c:52:36:52:b3:21:6e:12:
                    46:01:aa:86:5f:ca:4e:b7:a8:e7:ec:18:da:7c:40:
                    19:ce:9b:d3:e4:57:dc:19:ed:46:7b:fa:c5:cb:34:
                    e4:02:52:63:a7:6a:07:57:d1:e7:ec:83:b9:a4:ff:
                    f2:35:e8:d7:79:a4:26:d8:d8:35:02:a5:6f:66:b9:
                    6a:d1:b5
                Exponent: 65537 (0x10001)
        X509v3 extensions:
            X509v3 Subject Key Identifier: 
                B4:B3:67:98:0B:F2:80:85:5A:98:25:4F:44:44:7B:6A:6E:4E:9B:DB
            X509v3 Authority Key Identifier: 
                73:F6:C7:DC:3A:D7:2E:21:95:80:59:AE:DD:85:89:59:CD:61:27:83
    Signature Algorithm: sha256WithRSAEncryption
    Signature Value:
        57:12:89:a6:cf:df:a2:d1:8b:c2:3a:29:f4:cf:b4:99:3f:64:
        d3:cc:8f:65:89:5a:8a:a6:39:2e:d6:f6:c1:3f:92:cb:4a:27:
        ff:a1:48:7f:35:1a:50:22:20:03:ec:d7:f8:97:c6:e1:70:5c:
        48:30:d2:50:c1:a2:e4:32:b2:f6:37:f3:ba:d6:fa:e6:a2:ca:
        bb:79:56:e4:ff:19:bf:8f:12:01:7a:20:73:eb:0f:ec:96:f6:
        77:04:39:a0:3f:48:3e:37:4b:37:56:13:8e:a2:23:8b:74:eb:
        44:7d:7c:71:c2:44:79:2c:c4:e5:f5:b8:68:be:ab:be:27:ef:
        55:09:89:d5:6b:d8:33:b9:32:2e:e4:3d:97:6a:a7:76:bf:54:
        43:9e:40:b9:f7:78:f1:90:00:34:9b:99:8c:4f:11:47:51:9a:
        d3:b5:e3:0e:36:2a:34:a0:d3:65:a8:0c:c4:34:e7:5f:2a:26:
        df:c9:86:4f:63:1e:55:08:81:67:c7:5a:c7:18:7a:88:ae:04:
        13:f9:d0:7f:5e:d4:27:f1:33:19:68:77:2c:90:a2:ca:33:5f:
        4f:9c:38:b3:a5:f6:22:be:6d:d0:06:5e:9e:6f:af:c1:b8:6e:
        0a:08:8f:19:11:f6:97:32:53:26:d6:09:6b:15:50:b2:a9:6e:
        17:96:d7:34:56:f3:93:6b:53:38:22:5b:f3:f5:e7:f8:c6:95:
        a9:ea:13:19:1a:22:12:6a:da:a4:00:e0:84:b9:77:14:f8:99:
        21:ac:8b:0b:40:60:41:76:a1:d5:48:07:80:a5:97:5d:36:f4:
        1c:29:68:b9:4f:7f:c1:e8:69:fe:a1:c0:9e:c7:4a:9b:04:c8:
        9e:4b:21:ec:06:e8:0b:aa:9a:d3:f7:4c:07:b3:1e:87:41:e0:
        af:34:52:15:0d:80:65:35:03:09:fc:37:35:a4:f7:7c:8a:63:
        71:7e:29:d3:6a:93:db:5e:d4:47:53:7f:f3:35:73:0e:2c:6e:
        f9:16:b3:ba:06:17:6f:53:2d:c3:f9:4d:ec:85:c3:a1:69:52:
        2e:2c:9f:38:e2:16:02:a5:c8:09:c3:57:fa:f8:6c:32:69:31:
        e1:3f:c7:2e:ff:7e:10:a9:12:c6:b4:0d:8e:e8:a0:73:b8:3f:
        d1:49:1a:9e:bc:bc:af:af:58:69:b2:81:a9:5c:5b:24:1d:c4:
        71:fb:c9:f4:15:7f:51:43:c2:5a:f2:3c:e1:bc:2d:8f:6e:aa:
        19:26:ab:55:5d:9f:fb:33:16:80:c1:de:5b:ec:0c:a0:1e:49:
        23:51:ba:b5:a4:26:58:b1:c4:b5:a6:11:70:36:29:fa:53:dc:
        90:52:f2:bd:6f:12:8a:37
-----BEGIN CERTIFICATE-----
MIIFATCCAumgAwIBAgIUFZB5h1ixj0yQ6g3ZsVINt+9+CukwDQYJKoZIhvcNAQEL
BQAwGTEXMBUGA1UEAwwOY2EuZXhhbXBsZS5jb20wHhcNMjQwODEzMDQzNDE4WhcN
MjQwOTEyMDQzNDE4WjAYMRYwFAYDVQQDDA1iLmV4YW1wbGUuY29tMIICIjANBgkq
hkiG9w0BAQEFAAOCAg8AMIICCgKCAgEArjqXSdaD7lo44NPygEbwJ/Q5Bj65NPN/
zSOgeSIaik7J5sj2vUz6EdfG8wsqXy6lOaMZEy1F/OeDwJ7KD5hdAO5yGKSopfyc
iIea7Fc+9F+bk49uLFUI+hzS5+rYkxoahYjNP5mVrWrgE9Pej9xZe/tIotFcqJ/A
q4M0tkCimFUymsmCQn0AQNJwBsZ3gPSX6rLWp62yvBxIauziz7LdzPsQiS6PhXSU
3/r7rG9WGBtF6be1FjVTsSSzaS9YeHucypJSMYOB7sgeLP81Mg80Pn97BmXsinOr
UBQKLB5+/ZGPh+vN+7DuaWFqgLDt/Ab5SQmFYUWoVQwPoCykEpe54w8NjBUqsYhb
byaBCzJNEAEha9UxeqJXuAaXIeCjJxcem0PspR0ahYCM8+ezZ5KX8I+7gxPT7hlF
tCyyN++PDl8Pd9eTY8nI+Bk20b/B2Ba0DIFhSG2Citwxe0YzU07lB7arc8rM5R0+
CERSVna5U0EslBLayILDOQMmuMy381fBRaQFvOFbbrLAOswG3kLd2xRJ2O+m3YxN
MyGYYMq/C7bsXxTXfeSen3CTGDa5YdaZGovGhhaDCEsWPFI2UrMhbhJGAaqGX8pO
t6jn7BjafEAZzpvT5FfcGe1Ge/rFyzTkAlJjp2oHV9Hn7IO5pP/yNejXeaQm2Ng1
AqVvZrlq0bUCAwEAAaNCMEAwHQYDVR0OBBYEFLSzZ5gL8oCFWpglT0REe2puTpvb
MB8GA1UdIwQYMBaAFHP2x9w61y4hlYBZrt2FiVnNYSeDMA0GCSqGSIb3DQEBCwUA
A4ICAQBXEommz9+i0YvCOin0z7SZP2TTzI9liVqKpjku1vbBP5LLSif/oUh/NRpQ
IiAD7Nf4l8bhcFxIMNJQwaLkMrL2N/O61vrmosq7eVbk/xm/jxIBeiBz6w/slvZ3
BDmgP0g+N0s3VhOOoiOLdOtEfXxxwkR5LMTl9bhovqu+J+9VCYnVa9gzuTIu5D2X
aqd2v1RDnkC593jxkAA0m5mMTxFHUZrTteMONio0oNNlqAzENOdfKibfyYZPYx5V
CIFnx1rHGHqIrgQT+dB/XtQn8TMZaHcskKLKM19PnDizpfYivm3QBl6eb6/BuG4K
CI8ZEfaXMlMm1glrFVCyqW4Xltc0VvOTa1M4Ilvz9ef4xpWp6hMZGiISatqkAOCE
uXcU+JkhrIsLQGBBdqHVSAeApZddNvQcKWi5T3/B6Gn+ocCex0qbBMieSyHsBugL
qprT90wHsx6HQeCvNFIVDYBlNQMJ/Dc1pPd8imNxfinTapPbXtRHU3/zNXMOLG75
FrO6BhdvUy3D+U3shcOhaVIuLJ844hYCpcgJw1f6+GwyaTHhP8cu/34QqRLGtA2O
6KBzuD/RSRqevLyvr1hpsoGpXFskHcRx+8n0FX9RQ8Ja8jzhvC2PbqoZJqtVXZ/7
MxaAwd5b7AygHkkjUbq1pCZYscS1phFwNin6U9yQUvK9bxKKNw==
-----END CERTIFICATE-----
