Certificate:
    Data:
        Version: 3 (0x2)
        Serial Number:
            03:08:b7:d5:92:1f:bd:5a:12:66:c8:a0:c0:28:13:9b:08:59:b1:1f
        Signature Algorithm: sha1WithRSAEncryption
        Issuer: C=AU, O=Dodgy Brothers, CN=Dodgy CA
        Validity
            Not Before: Aug 13 04:37:11 2024 GMT
            Not After : Aug 13 04:37:11 2025 GMT
        Subject: C=AU, O=Dodgy Brothers, CN=Brother 1, CN=both_generalizedtime
        Subject Public Key Info:
            Public Key Algorithm: rsaEncryption
                Public-Key: (2048 bit)
                Modulus:
                    00:be:95:86:fa:71:4c:6a:ea:51:98:50:4b:99:a1:
                    2c:66:15:f3:60:f3:e1:ff:69:fb:ce:48:01:1d:fe:
                    e1:2c:38:b0:e3:bd:8f:4b:48:a7:7e:3a:c6:73:e3:
                    ab:bf:e1:da:6e:96:f5:fe:c3:e4:b4:a8:ad:bc:56:
                    34:d4:96:25:74:27:c3:10:db:35:10:25:1c:8e:4b:
                    81:9b:fb:42:04:7c:6f:3d:e2:38:6c:0e:e4:2e:8e:
                    2a:18:6d:30:cd:67:2a:23:6b:37:cf:05:9f:cc:b7:
                    59:58:7f:ba:c4:0a:3f:8c:a4:ad:cb:98:9c:c0:f2:
                    8f:69:67:0f:c1:4e:33:cf:fc:85:5e:bb:5e:cf:93:
                    b0:cf:d9:f4:52:79:87:b1:f8:4d:15:68:65:d5:b7:
                    19:08:63:7f:5e:b1:34:ad:05:8f:5a:f0:e4:e1:8f:
                    25:f2:5c:5c:61:95:b0:56:2d:31:2b:08:65:79:e5:
                    b1:3b:9d:3e:b9:52:4b:ac:5d:c4:58:66:85:8d:81:
                    b3:04:28:f4:3f:2f:ac:92:01:62:d5:fd:8e:0b:da:
                    02:0c:7a:c7:6e:09:1c:ac:1c:b2:4c:d7:54:b8:26:
                    33:b2:5f:14:f3:b1:f9:3d:62:4d:40:99:6b:b6:e7:
                    89:58:97:d6:d4:4d:ea:4b:68:52:f3:3c:a8:b1:35:
                    88:db
                Exponent: 65537 (0x10001)
        X509v3 extensions:
            X509v3 Subject Key Identifier: 
                A1:DF:33:C3:CF:3E:53:41:A7:68:44:CC:AA:19:E1:84:C9:0D:BC:C6
            X509v3 Authority Key Identifier: 
                keyid:B4:11:33:F1:D7:E2:5E:F7:53:9E:20:22:10:4F:86:06:BF:1F:C9:5E
                DirName:/C=AU/O=Dodgy Brothers/CN=Dodgy CA
                serial:28:56:83:5C:E7:24:3C:3E:1E:4A:85:B5:63:58:31:AC:68:FE:FB:70
            X509v3 Basic Constraints: critical
                CA:TRUE, pathlen:1
            X509v3 Key Usage: 
                Certificate Sign, CRL Sign
            X509v3 Issuer Alternative Name: 
                <EMPTY>

    Signature Algorithm: sha1WithRSAEncryption
    Signature Value:
        29:25:91:c7:08:92:38:19:c4:b1:16:cb:58:72:b3:ca:98:ac:
        cc:64:2e:ca:16:e7:ba:81:f7:87:00:b7:66:a4:a2:79:fd:5c:
        1f:a4:b5:0d:26:1c:09:47:d2:66:c6:1c:bc:5f:4f:c9:14:3b:
        ea:da:fd:e1:34:cd:db:45:9c:fa:d3:98:61:5b:40:1a:ac:0c:
        1f:de:2e:5b:4d:88:ee:60:ea:be:6a:29:c8:f7:ba:f7:53:b5:
        fc:34:44:9d:35:8f:ab:1c:99:88:7a:df:d7:3f:3d:8c:9e:0d:
        56:b2:29:90:42:99:90:e5:35:ad:eb:5e:cc:a8:fe:96:da:15:
        bb:7c:ed:91:04:b0:8d:af:6c:1a:ea:03:2b:57:d2:9a:63:10:
        63:2a:fd:a9:db:a0:e6:4b:b8:c7:cd:ae:9b:1f:57:95:f8:8b:
        ca:0a:34:d5:ca:d5:c2:5e:69:97:07:12:f7:5e:bb:fd:6b:01:
        1f:f7:31:8b:69:19:dc:f4:62:bf:af:20:bc:3f:de:ef:81:a8:
        49:43:2c:4c:13:36:37:16:05:4e:28:43:7f:f9:c6:e6:3a:9a:
        f5:b9:eb:aa:a2:bb:f8:92:94:a7:00:c5:44:57:da:04:2a:4c:
        28:16:3c:af:72:45:c6:52:9a:c7:4b:5d:7d:fa:ed:63:ed:fa:
        fb:19:ca:6e
-----BEGIN CERTIFICATE-----
MIID5TCCAs2gAwIBAgIUAwi31ZIfvVoSZsigwCgTmwhZsR8wDQYJKoZIhvcNAQEF
BQAwOTELMAkGA1UEBhMCQVUxFzAVBgNVBAoMDkRvZGd5IEJyb3RoZXJzMREwDwYD
VQQDDAhEb2RneSBDQTAeFw0yNDA4MTMwNDM3MTFaFw0yNTA4MTMwNDM3MTFaMFkx
CzAJBgNVBAYTAkFVMRcwFQYDVQQKDA5Eb2RneSBCcm90aGVyczESMBAGA1UEAwwJ
QnJvdGhlciAxMR0wGwYDVQQDDBRib3RoX2dlbmVyYWxpemVkdGltZTCCASIwDQYJ
KoZIhvcNAQEBBQADggEPADCCAQoCggEBAL6VhvpxTGrqUZhQS5mhLGYV82Dz4f9p
+85IAR3+4Sw4sOO9j0tIp346xnPjq7/h2m6W9f7D5LSorbxWNNSWJXQnwxDbNRAl
HI5LgZv7QgR8bz3iOGwO5C6OKhhtMM1nKiNrN88Fn8y3WVh/usQKP4ykrcuYnMDy
j2lnD8FOM8/8hV67Xs+TsM/Z9FJ5h7H4TRVoZdW3GQhjf16xNK0Fj1rw5OGPJfJc
XGGVsFYtMSsIZXnlsTudPrlSS6xdxFhmhY2BswQo9D8vrJIBYtX9jgvaAgx6x24J
HKwcskzXVLgmM7JfFPOx+T1iTUCZa7bniViX1tRN6ktoUvM8qLE1iNsCAwEAAaOB
xDCBwTAdBgNVHQ4EFgQUod8zw88+U0GnaETMqhnhhMkNvMYwdAYDVR0jBG0wa4AU
tBEz8dfiXvdTniAiEE+GBr8fyV6hPaQ7MDkxCzAJBgNVBAYTAkFVMRcwFQYDVQQK
DA5Eb2RneSBCcm90aGVyczERMA8GA1UEAwwIRG9kZ3kgQ0GCFChWg1znJDw+HkqF
tWNYMaxo/vtwMBIGA1UdEwEB/wQIMAYBAf8CAQEwCwYDVR0PBAQDAgEGMAkGA1Ud
EgQCMAAwDQYJKoZIhvcNAQEFBQADggEBACklkccIkjgZxLEWy1hys8qYrMxkLsoW
57qB94cAt2akonn9XB+ktQ0mHAlH0mbGHLxfT8kUO+ra/eE0zdtFnPrTmGFbQBqs
DB/eLltNiO5g6r5qKcj3uvdTtfw0RJ01j6scmYh639c/PYyeDVayKZBCmZDlNa3r
Xsyo/pbaFbt87ZEEsI2vbBrqAytX0ppjEGMq/anboOZLuMfNrpsfV5X4i8oKNNXK
1cJeaZcHEvdeu/1rAR/3MYtpGdz0Yr+vILw/3u+BqElDLEwTNjcWBU4oQ3/5xuY6
mvW566qiu/iSlKcAxURX2gQqTCgWPK9yRcZSmsdLXX367WPt+vsZym4=
-----END CERTIFICATE-----
