Certificate:
    Data:
        Version: 3 (0x2)
        Serial Number:
            03:08:b7:d5:92:1f:bd:5a:12:66:c8:a0:c0:28:13:9b:08:59:b1:18
        Signature Algorithm: sha1WithRSAEncryption
        Issuer: C=AU, O=Dodgy Brothers, CN=Dodgy CA
        Validity
            Not Before: Aug 13 04:37:08 2024 GMT
            Not After : Aug 13 04:37:08 2025 GMT
        Subject: C=AU, O=Dodgy Brothers, CN=Brother 1, CN=lastupdate_invalid
        Subject Public Key Info:
            Public Key Algorithm: rsaEncryption
                Public-Key: (2048 bit)
                Modulus:
                    00:be:95:86:fa:71:4c:6a:ea:51:98:50:4b:99:a1:
                    2c:66:15:f3:60:f3:e1:ff:69:fb:ce:48:01:1d:fe:
                    e1:2c:38:b0:e3:bd:8f:4b:48:a7:7e:3a:c6:73:e3:
                    ab:bf:e1:da:6e:96:f5:fe:c3:e4:b4:a8:ad:bc:56:
                    34:d4:96:25:74:27:c3:10:db:35:10:25:1c:8e:4b:
                    81:9b:fb:42:04:7c:6f:3d:e2:38:6c:0e:e4:2e:8e:
                    2a:18:6d:30:cd:67:2a:23:6b:37:cf:05:9f:cc:b7:
                    59:58:7f:ba:c4:0a:3f:8c:a4:ad:cb:98:9c:c0:f2:
                    8f:69:67:0f:c1:4e:33:cf:fc:85:5e:bb:5e:cf:93:
                    b0:cf:d9:f4:52:79:87:b1:f8:4d:15:68:65:d5:b7:
                    19:08:63:7f:5e:b1:34:ad:05:8f:5a:f0:e4:e1:8f:
                    25:f2:5c:5c:61:95:b0:56:2d:31:2b:08:65:79:e5:
                    b1:3b:9d:3e:b9:52:4b:ac:5d:c4:58:66:85:8d:81:
                    b3:04:28:f4:3f:2f:ac:92:01:62:d5:fd:8e:0b:da:
                    02:0c:7a:c7:6e:09:1c:ac:1c:b2:4c:d7:54:b8:26:
                    33:b2:5f:14:f3:b1:f9:3d:62:4d:40:99:6b:b6:e7:
                    89:58:97:d6:d4:4d:ea:4b:68:52:f3:3c:a8:b1:35:
                    88:db
                Exponent: 65537 (0x10001)
        X509v3 extensions:
            X509v3 Subject Key Identifier: 
                A1:DF:33:C3:CF:3E:53:41:A7:68:44:CC:AA:19:E1:84:C9:0D:BC:C6
            X509v3 Authority Key Identifier: 
                keyid:B4:11:33:F1:D7:E2:5E:F7:53:9E:20:22:10:4F:86:06:BF:1F:C9:5E
                DirName:/C=AU/O=Dodgy Brothers/CN=Dodgy CA
                serial:28:56:83:5C:E7:24:3C:3E:1E:4A:85:B5:63:58:31:AC:68:FE:FB:70
            X509v3 Basic Constraints: critical
                CA:TRUE, pathlen:1
            X509v3 Key Usage: 
                Certificate Sign, CRL Sign
            X509v3 Issuer Alternative Name: 
                <EMPTY>

    Signature Algorithm: sha1WithRSAEncryption
    Signature Value:
        6f:6b:37:56:1a:97:bb:6a:f8:e2:14:b7:12:6e:6e:41:d6:33:
        4f:bb:d7:13:35:82:1e:f6:76:b0:c9:bd:88:1e:48:52:d8:63:
        2d:5b:49:9b:66:62:66:07:de:ad:d5:33:eb:d9:df:10:06:db:
        44:a8:d8:82:e7:c9:4b:21:2c:fa:83:9b:fd:d2:89:87:31:3f:
        db:a8:c1:fd:15:64:e6:ac:e4:70:d5:9f:32:ee:29:c8:f7:f2:
        75:1a:3c:66:77:0b:c9:ea:19:95:b9:aa:72:81:30:81:05:d3:
        3f:cf:5a:27:f5:0a:85:a0:b6:57:1b:e9:b9:6c:35:b2:22:10:
        13:1d:7c:e3:61:30:53:1e:21:b8:7d:26:5c:a1:34:8a:df:c1:
        85:e2:df:4f:3c:eb:55:bf:0e:7a:d0:c4:5f:61:95:c1:5f:57:
        e9:2f:fa:cf:93:08:43:b2:a3:a1:28:52:a0:fb:4d:19:55:6c:
        67:0d:eb:2a:2d:06:05:e2:f1:02:fd:7e:38:90:27:fd:15:da:
        d7:3a:27:76:db:05:79:e1:f2:3f:48:a9:17:74:19:e1:71:45:
        c2:0d:16:b9:e8:a4:99:81:1f:a3:0b:ad:f9:22:c3:9d:e7:6a:
        66:48:46:d5:93:eb:4b:1b:15:d2:25:ad:ff:18:e1:82:23:30:
        3f:d8:14:e1
-----BEGIN CERTIFICATE-----
MIID4zCCAsugAwIBAgIUAwi31ZIfvVoSZsigwCgTmwhZsRgwDQYJKoZIhvcNAQEF
BQAwOTELMAkGA1UEBhMCQVUxFzAVBgNVBAoMDkRvZGd5IEJyb3RoZXJzMREwDwYD
VQQDDAhEb2RneSBDQTAeFw0yNDA4MTMwNDM3MDhaFw0yNTA4MTMwNDM3MDhaMFcx
CzAJBgNVBAYTAkFVMRcwFQYDVQQKDA5Eb2RneSBCcm90aGVyczESMBAGA1UEAwwJ
QnJvdGhlciAxMRswGQYDVQQDDBJsYXN0dXBkYXRlX2ludmFsaWQwggEiMA0GCSqG
SIb3DQEBAQUAA4IBDwAwggEKAoIBAQC+lYb6cUxq6lGYUEuZoSxmFfNg8+H/afvO
SAEd/uEsOLDjvY9LSKd+OsZz46u/4dpulvX+w+S0qK28VjTUliV0J8MQ2zUQJRyO
S4Gb+0IEfG894jhsDuQujioYbTDNZyojazfPBZ/Mt1lYf7rECj+MpK3LmJzA8o9p
Zw/BTjPP/IVeu17Pk7DP2fRSeYex+E0VaGXVtxkIY39esTStBY9a8OThjyXyXFxh
lbBWLTErCGV55bE7nT65UkusXcRYZoWNgbMEKPQ/L6ySAWLV/Y4L2gIMesduCRys
HLJM11S4JjOyXxTzsfk9Yk1AmWu254lYl9bUTepLaFLzPKixNYjbAgMBAAGjgcQw
gcEwHQYDVR0OBBYEFKHfM8PPPlNBp2hEzKoZ4YTJDbzGMHQGA1UdIwRtMGuAFLQR
M/HX4l73U54gIhBPhga/H8leoT2kOzA5MQswCQYDVQQGEwJBVTEXMBUGA1UECgwO
RG9kZ3kgQnJvdGhlcnMxETAPBgNVBAMMCERvZGd5IENBghQoVoNc5yQ8Ph5KhbVj
WDGsaP77cDASBgNVHRMBAf8ECDAGAQH/AgEBMAsGA1UdDwQEAwIBBjAJBgNVHRIE
AjAAMA0GCSqGSIb3DQEBBQUAA4IBAQBvazdWGpe7avjiFLcSbm5B1jNPu9cTNYIe
9nawyb2IHkhS2GMtW0mbZmJmB96t1TPr2d8QBttEqNiC58lLISz6g5v90omHMT/b
qMH9FWTmrORw1Z8y7inI9/J1GjxmdwvJ6hmVuapygTCBBdM/z1on9QqFoLZXG+m5
bDWyIhATHXzjYTBTHiG4fSZcoTSK38GF4t9PPOtVvw560MRfYZXBX1fpL/rPkwhD
sqOhKFKg+00ZVWxnDesqLQYF4vEC/X44kCf9FdrXOid22wV54fI/SKkXdBnhcUXC
DRa56KSZgR+jC635IsOd52pmSEbVk+tLGxXSJa3/GOGCIzA/2BTh
-----END CERTIFICATE-----
