Certificate:
    Data:
        Version: 3 (0x2)
        Serial Number:
            03:08:b7:d5:92:1f:bd:5a:12:66:c8:a0:c0:28:13:9b:08:59:b1:1b
        Signature Algorithm: sha1WithRSAEncryption
        Issuer: C=AU, O=Dodgy Brothers, CN=Dodgy CA
        Validity
            Not Before: Aug 13 04:37:09 2024 GMT
            Not After : Aug 13 04:37:09 2025 GMT
        Subject: C=AU, O=Dodgy Brothers, CN=Brother 1, CN=nextupdate_invalid
        Subject Public Key Info:
            Public Key Algorithm: rsaEncryption
                Public-Key: (2048 bit)
                Modulus:
                    00:be:95:86:fa:71:4c:6a:ea:51:98:50:4b:99:a1:
                    2c:66:15:f3:60:f3:e1:ff:69:fb:ce:48:01:1d:fe:
                    e1:2c:38:b0:e3:bd:8f:4b:48:a7:7e:3a:c6:73:e3:
                    ab:bf:e1:da:6e:96:f5:fe:c3:e4:b4:a8:ad:bc:56:
                    34:d4:96:25:74:27:c3:10:db:35:10:25:1c:8e:4b:
                    81:9b:fb:42:04:7c:6f:3d:e2:38:6c:0e:e4:2e:8e:
                    2a:18:6d:30:cd:67:2a:23:6b:37:cf:05:9f:cc:b7:
                    59:58:7f:ba:c4:0a:3f:8c:a4:ad:cb:98:9c:c0:f2:
                    8f:69:67:0f:c1:4e:33:cf:fc:85:5e:bb:5e:cf:93:
                    b0:cf:d9:f4:52:79:87:b1:f8:4d:15:68:65:d5:b7:
                    19:08:63:7f:5e:b1:34:ad:05:8f:5a:f0:e4:e1:8f:
                    25:f2:5c:5c:61:95:b0:56:2d:31:2b:08:65:79:e5:
                    b1:3b:9d:3e:b9:52:4b:ac:5d:c4:58:66:85:8d:81:
                    b3:04:28:f4:3f:2f:ac:92:01:62:d5:fd:8e:0b:da:
                    02:0c:7a:c7:6e:09:1c:ac:1c:b2:4c:d7:54:b8:26:
                    33:b2:5f:14:f3:b1:f9:3d:62:4d:40:99:6b:b6:e7:
                    89:58:97:d6:d4:4d:ea:4b:68:52:f3:3c:a8:b1:35:
                    88:db
                Exponent: 65537 (0x10001)
        X509v3 extensions:
            X509v3 Subject Key Identifier: 
                A1:DF:33:C3:CF:3E:53:41:A7:68:44:CC:AA:19:E1:84:C9:0D:BC:C6
            X509v3 Authority Key Identifier: 
                keyid:B4:11:33:F1:D7:E2:5E:F7:53:9E:20:22:10:4F:86:06:BF:1F:C9:5E
                DirName:/C=AU/O=Dodgy Brothers/CN=Dodgy CA
                serial:28:56:83:5C:E7:24:3C:3E:1E:4A:85:B5:63:58:31:AC:68:FE:FB:70
            X509v3 Basic Constraints: critical
                CA:TRUE, pathlen:1
            X509v3 Key Usage: 
                Certificate Sign, CRL Sign
            X509v3 Issuer Alternative Name: 
                <EMPTY>

    Signature Algorithm: sha1WithRSAEncryption
    Signature Value:
        37:3b:51:e8:0a:83:e6:e3:be:e0:c5:1f:eb:a8:af:15:58:1f:
        d9:13:53:10:32:50:5d:b9:f3:90:6b:4c:af:9d:31:70:d8:04:
        bf:02:0b:5e:b7:16:31:b8:58:cf:1f:5c:50:49:2d:56:81:08:
        e9:1b:d4:8f:65:aa:ab:c7:f3:91:a2:7a:b3:63:7a:15:17:8a:
        f8:b6:c2:ed:f3:3f:39:91:e4:ea:90:83:2f:19:97:bb:17:68:
        1c:b8:b4:2a:85:78:57:89:40:7e:d1:98:8c:34:96:6c:29:5c:
        e7:9c:0f:ec:4c:c1:88:25:bb:d4:37:10:a8:4f:e6:43:b0:9b:
        38:48:39:86:38:b4:da:70:72:1d:91:e6:cf:b2:54:9a:ae:37:
        b0:38:f2:69:40:a9:80:97:e9:70:9c:a0:d4:ca:ec:6e:ab:28:
        05:50:3e:36:cb:98:c8:0f:a2:17:db:33:e8:5f:92:5e:52:fa:
        67:9f:f9:23:31:91:e5:3a:32:9f:cb:8c:72:49:0c:92:56:f2:
        f4:24:2b:97:62:ea:bd:fb:83:01:07:8c:9c:80:fd:ee:72:65:
        bc:65:b2:07:d4:58:7f:bf:14:88:62:af:e3:bf:84:b6:ec:36:
        5d:21:ef:ce:1c:88:3e:a2:8e:68:d1:16:92:28:d4:c6:5c:40:
        cf:24:a6:fd
-----BEGIN CERTIFICATE-----
MIID4zCCAsugAwIBAgIUAwi31ZIfvVoSZsigwCgTmwhZsRswDQYJKoZIhvcNAQEF
BQAwOTELMAkGA1UEBhMCQVUxFzAVBgNVBAoMDkRvZGd5IEJyb3RoZXJzMREwDwYD
VQQDDAhEb2RneSBDQTAeFw0yNDA4MTMwNDM3MDlaFw0yNTA4MTMwNDM3MDlaMFcx
CzAJBgNVBAYTAkFVMRcwFQYDVQQKDA5Eb2RneSBCcm90aGVyczESMBAGA1UEAwwJ
QnJvdGhlciAxMRswGQYDVQQDDBJuZXh0dXBkYXRlX2ludmFsaWQwggEiMA0GCSqG
SIb3DQEBAQUAA4IBDwAwggEKAoIBAQC+lYb6cUxq6lGYUEuZoSxmFfNg8+H/afvO
SAEd/uEsOLDjvY9LSKd+OsZz46u/4dpulvX+w+S0qK28VjTUliV0J8MQ2zUQJRyO
S4Gb+0IEfG894jhsDuQujioYbTDNZyojazfPBZ/Mt1lYf7rECj+MpK3LmJzA8o9p
Zw/BTjPP/IVeu17Pk7DP2fRSeYex+E0VaGXVtxkIY39esTStBY9a8OThjyXyXFxh
lbBWLTErCGV55bE7nT65UkusXcRYZoWNgbMEKPQ/L6ySAWLV/Y4L2gIMesduCRys
HLJM11S4JjOyXxTzsfk9Yk1AmWu254lYl9bUTepLaFLzPKixNYjbAgMBAAGjgcQw
gcEwHQYDVR0OBBYEFKHfM8PPPlNBp2hEzKoZ4YTJDbzGMHQGA1UdIwRtMGuAFLQR
M/HX4l73U54gIhBPhga/H8leoT2kOzA5MQswCQYDVQQGEwJBVTEXMBUGA1UECgwO
RG9kZ3kgQnJvdGhlcnMxETAPBgNVBAMMCERvZGd5IENBghQoVoNc5yQ8Ph5KhbVj
WDGsaP77cDASBgNVHRMBAf8ECDAGAQH/AgEBMAsGA1UdDwQEAwIBBjAJBgNVHRIE
AjAAMA0GCSqGSIb3DQEBBQUAA4IBAQA3O1HoCoPm477gxR/rqK8VWB/ZE1MQMlBd
ufOQa0yvnTFw2AS/AgtetxYxuFjPH1xQSS1WgQjpG9SPZaqrx/ORonqzY3oVF4r4
tsLt8z85keTqkIMvGZe7F2gcuLQqhXhXiUB+0ZiMNJZsKVznnA/sTMGIJbvUNxCo
T+ZDsJs4SDmGOLTacHIdkebPslSarjewOPJpQKmAl+lwnKDUyuxuqygFUD42y5jI
D6IX2zPoX5JeUvpnn/kjMZHlOjKfy4xySQySVvL0JCuXYuq9+4MBB4ycgP3ucmW8
ZbIH1Fh/vxSIYq/jv4S27DZdIe/OHIg+oo5o0RaSKNTGXEDPJKb9
-----END CERTIFICATE-----
