Certificate:
    Data:
        Version: 3 (0x2)
        Serial Number:
            03:08:b7:d5:92:1f:bd:5a:12:66:c8:a0:c0:28:13:9b:08:59:b1:1c
        Signature Algorithm: sha1WithRSAEncryption
        Issuer: C=AU, O=Dodgy Brothers, CN=Dodgy CA
        Validity
            Not Before: Aug 13 04:37:10 2024 GMT
            Not After : Aug 13 04:37:10 2025 GMT
        Subject: C=AU, O=Dodgy Brothers, CN=Brother 1, CN=nextupdate_utctime
        Subject Public Key Info:
            Public Key Algorithm: rsaEncryption
                Public-Key: (2048 bit)
                Modulus:
                    00:be:95:86:fa:71:4c:6a:ea:51:98:50:4b:99:a1:
                    2c:66:15:f3:60:f3:e1:ff:69:fb:ce:48:01:1d:fe:
                    e1:2c:38:b0:e3:bd:8f:4b:48:a7:7e:3a:c6:73:e3:
                    ab:bf:e1:da:6e:96:f5:fe:c3:e4:b4:a8:ad:bc:56:
                    34:d4:96:25:74:27:c3:10:db:35:10:25:1c:8e:4b:
                    81:9b:fb:42:04:7c:6f:3d:e2:38:6c:0e:e4:2e:8e:
                    2a:18:6d:30:cd:67:2a:23:6b:37:cf:05:9f:cc:b7:
                    59:58:7f:ba:c4:0a:3f:8c:a4:ad:cb:98:9c:c0:f2:
                    8f:69:67:0f:c1:4e:33:cf:fc:85:5e:bb:5e:cf:93:
                    b0:cf:d9:f4:52:79:87:b1:f8:4d:15:68:65:d5:b7:
                    19:08:63:7f:5e:b1:34:ad:05:8f:5a:f0:e4:e1:8f:
                    25:f2:5c:5c:61:95:b0:56:2d:31:2b:08:65:79:e5:
                    b1:3b:9d:3e:b9:52:4b:ac:5d:c4:58:66:85:8d:81:
                    b3:04:28:f4:3f:2f:ac:92:01:62:d5:fd:8e:0b:da:
                    02:0c:7a:c7:6e:09:1c:ac:1c:b2:4c:d7:54:b8:26:
                    33:b2:5f:14:f3:b1:f9:3d:62:4d:40:99:6b:b6:e7:
                    89:58:97:d6:d4:4d:ea:4b:68:52:f3:3c:a8:b1:35:
                    88:db
                Exponent: 65537 (0x10001)
        X509v3 extensions:
            X509v3 Subject Key Identifier: 
                A1:DF:33:C3:CF:3E:53:41:A7:68:44:CC:AA:19:E1:84:C9:0D:BC:C6
            X509v3 Authority Key Identifier: 
                keyid:B4:11:33:F1:D7:E2:5E:F7:53:9E:20:22:10:4F:86:06:BF:1F:C9:5E
                DirName:/C=AU/O=Dodgy Brothers/CN=Dodgy CA
                serial:28:56:83:5C:E7:24:3C:3E:1E:4A:85:B5:63:58:31:AC:68:FE:FB:70
            X509v3 Basic Constraints: critical
                CA:TRUE, pathlen:1
            X509v3 Key Usage: 
                Certificate Sign, CRL Sign
            X509v3 Issuer Alternative Name: 
                <EMPTY>

    Signature Algorithm: sha1WithRSAEncryption
    Signature Value:
        1d:32:53:af:d1:35:f0:e3:c5:22:b2:61:ac:1a:cc:4a:a6:7a:
        bf:02:d8:ff:b9:ee:9a:18:8f:66:d5:07:ec:99:6e:2e:58:41:
        d1:d7:0f:fe:2b:54:02:8c:5a:3e:85:40:ea:16:9e:4f:16:9a:
        26:54:36:f3:51:55:33:da:f4:36:24:75:26:26:3c:ad:ff:c1:
        d8:e7:a5:56:cb:24:e0:f5:5f:04:ba:e4:7b:62:7a:24:3f:c1:
        bf:99:c4:49:e2:60:3d:a6:e7:c0:20:46:ba:66:f5:94:d6:b8:
        69:40:da:62:c4:f2:81:92:07:b2:94:23:bf:b0:f7:1f:5a:b3:
        22:be:f5:ad:d3:26:41:a5:14:31:e8:21:36:80:54:b2:43:ea:
        d9:d5:1a:9d:aa:dc:91:3d:84:84:91:68:4f:3a:26:f3:66:50:
        26:d4:17:c0:01:9b:c9:9b:1f:00:ab:ad:74:de:e0:50:9a:f9:
        df:37:ee:ea:16:5e:b0:06:42:a3:d7:10:77:90:aa:fc:0f:d5:
        1f:4b:b5:d3:b2:96:a7:50:f6:a5:a3:b5:ac:cb:81:eb:5a:a5:
        86:85:ff:35:59:a8:27:85:43:8d:55:6a:48:57:0f:7b:01:40:
        77:3e:42:07:d8:67:a4:1b:94:9d:35:92:68:c2:37:b8:17:e4:
        d7:8d:c7:a3
-----BEGIN CERTIFICATE-----
MIID4zCCAsugAwIBAgIUAwi31ZIfvVoSZsigwCgTmwhZsRwwDQYJKoZIhvcNAQEF
BQAwOTELMAkGA1UEBhMCQVUxFzAVBgNVBAoMDkRvZGd5IEJyb3RoZXJzMREwDwYD
VQQDDAhEb2RneSBDQTAeFw0yNDA4MTMwNDM3MTBaFw0yNTA4MTMwNDM3MTBaMFcx
CzAJBgNVBAYTAkFVMRcwFQYDVQQKDA5Eb2RneSBCcm90aGVyczESMBAGA1UEAwwJ
QnJvdGhlciAxMRswGQYDVQQDDBJuZXh0dXBkYXRlX3V0Y3RpbWUwggEiMA0GCSqG
SIb3DQEBAQUAA4IBDwAwggEKAoIBAQC+lYb6cUxq6lGYUEuZoSxmFfNg8+H/afvO
SAEd/uEsOLDjvY9LSKd+OsZz46u/4dpulvX+w+S0qK28VjTUliV0J8MQ2zUQJRyO
S4Gb+0IEfG894jhsDuQujioYbTDNZyojazfPBZ/Mt1lYf7rECj+MpK3LmJzA8o9p
Zw/BTjPP/IVeu17Pk7DP2fRSeYex+E0VaGXVtxkIY39esTStBY9a8OThjyXyXFxh
lbBWLTErCGV55bE7nT65UkusXcRYZoWNgbMEKPQ/L6ySAWLV/Y4L2gIMesduCRys
HLJM11S4JjOyXxTzsfk9Yk1AmWu254lYl9bUTepLaFLzPKixNYjbAgMBAAGjgcQw
gcEwHQYDVR0OBBYEFKHfM8PPPlNBp2hEzKoZ4YTJDbzGMHQGA1UdIwRtMGuAFLQR
M/HX4l73U54gIhBPhga/H8leoT2kOzA5MQswCQYDVQQGEwJBVTEXMBUGA1UECgwO
RG9kZ3kgQnJvdGhlcnMxETAPBgNVBAMMCERvZGd5IENBghQoVoNc5yQ8Ph5KhbVj
WDGsaP77cDASBgNVHRMBAf8ECDAGAQH/AgEBMAsGA1UdDwQEAwIBBjAJBgNVHRIE
AjAAMA0GCSqGSIb3DQEBBQUAA4IBAQAdMlOv0TXw48UismGsGsxKpnq/Atj/ue6a
GI9m1QfsmW4uWEHR1w/+K1QCjFo+hUDqFp5PFpomVDbzUVUz2vQ2JHUmJjyt/8HY
56VWyyTg9V8EuuR7YnokP8G/mcRJ4mA9pufAIEa6ZvWU1rhpQNpixPKBkgeylCO/
sPcfWrMivvWt0yZBpRQx6CE2gFSyQ+rZ1RqdqtyRPYSEkWhPOibzZlAm1BfAAZvJ
mx8Aq6103uBQmvnfN+7qFl6wBkKj1xB3kKr8D9UfS7XTspanUPalo7Wsy4HrWqWG
hf81WagnhUONVWpIVw97AUB3PkIH2GekG5SdNZJowje4F+TXjcej
-----END CERTIFICATE-----
