Certificate:
    Data:
        Version: 3 (0x2)
        Serial Number:
            03:08:b7:d5:92:1f:bd:5a:12:66:c8:a0:c0:28:13:9b:08:59:b1:17
        Signature Algorithm: sha1WithRSAEncryption
        Issuer: C=AU, O=Dodgy Brothers, CN=Dodgy CA
        Validity
            Not Before: Aug 13 04:37:07 2024 GMT
            Not After : Aug 13 04:37:07 2025 GMT
        Subject: C=AU, O=Dodgy Brothers, CN=Brother 1, CN=notimes
        Subject Public Key Info:
            Public Key Algorithm: rsaEncryption
                Public-Key: (2048 bit)
                Modulus:
                    00:be:95:86:fa:71:4c:6a:ea:51:98:50:4b:99:a1:
                    2c:66:15:f3:60:f3:e1:ff:69:fb:ce:48:01:1d:fe:
                    e1:2c:38:b0:e3:bd:8f:4b:48:a7:7e:3a:c6:73:e3:
                    ab:bf:e1:da:6e:96:f5:fe:c3:e4:b4:a8:ad:bc:56:
                    34:d4:96:25:74:27:c3:10:db:35:10:25:1c:8e:4b:
                    81:9b:fb:42:04:7c:6f:3d:e2:38:6c:0e:e4:2e:8e:
                    2a:18:6d:30:cd:67:2a:23:6b:37:cf:05:9f:cc:b7:
                    59:58:7f:ba:c4:0a:3f:8c:a4:ad:cb:98:9c:c0:f2:
                    8f:69:67:0f:c1:4e:33:cf:fc:85:5e:bb:5e:cf:93:
                    b0:cf:d9:f4:52:79:87:b1:f8:4d:15:68:65:d5:b7:
                    19:08:63:7f:5e:b1:34:ad:05:8f:5a:f0:e4:e1:8f:
                    25:f2:5c:5c:61:95:b0:56:2d:31:2b:08:65:79:e5:
                    b1:3b:9d:3e:b9:52:4b:ac:5d:c4:58:66:85:8d:81:
                    b3:04:28:f4:3f:2f:ac:92:01:62:d5:fd:8e:0b:da:
                    02:0c:7a:c7:6e:09:1c:ac:1c:b2:4c:d7:54:b8:26:
                    33:b2:5f:14:f3:b1:f9:3d:62:4d:40:99:6b:b6:e7:
                    89:58:97:d6:d4:4d:ea:4b:68:52:f3:3c:a8:b1:35:
                    88:db
                Exponent: 65537 (0x10001)
        X509v3 extensions:
            X509v3 Subject Key Identifier: 
                A1:DF:33:C3:CF:3E:53:41:A7:68:44:CC:AA:19:E1:84:C9:0D:BC:C6
            X509v3 Authority Key Identifier: 
                keyid:B4:11:33:F1:D7:E2:5E:F7:53:9E:20:22:10:4F:86:06:BF:1F:C9:5E
                DirName:/C=AU/O=Dodgy Brothers/CN=Dodgy CA
                serial:28:56:83:5C:E7:24:3C:3E:1E:4A:85:B5:63:58:31:AC:68:FE:FB:70
            X509v3 Basic Constraints: critical
                CA:TRUE, pathlen:1
            X509v3 Key Usage: 
                Certificate Sign, CRL Sign
            X509v3 Issuer Alternative Name: 
                <EMPTY>

    Signature Algorithm: sha1WithRSAEncryption
    Signature Value:
        8e:7a:36:56:37:b3:e9:5d:08:c9:08:c2:4f:23:e7:8f:c2:f1:
        ee:a3:03:06:ec:71:1f:66:19:cd:24:2e:c8:17:8e:b2:9e:78:
        16:51:08:52:48:01:a1:60:1c:d1:15:40:7b:ea:ce:78:de:47:
        6e:58:33:bf:d6:35:7a:36:ba:f6:b1:96:73:04:15:d9:49:4b:
        9a:b5:6a:79:61:bd:26:62:71:88:22:07:be:17:dd:98:74:51:
        4a:9f:f7:d6:fc:c5:c3:dc:1c:7e:01:51:39:c1:e2:c4:75:68:
        17:a3:9a:08:9a:e7:51:67:ab:a4:91:53:3b:62:3c:77:8f:4e:
        c2:e1:f8:4c:0d:22:c6:43:0d:93:53:72:a5:48:37:6d:a2:08:
        1d:1e:c0:d0:ae:63:7a:b1:10:f8:56:19:ae:7e:e0:64:05:e5:
        03:ca:3a:0a:07:72:e9:1e:3c:bf:54:d4:a3:0d:a0:37:48:bd:
        c5:f5:00:ce:47:f0:0b:04:d7:57:f2:3a:e9:05:22:7c:65:06:
        f9:95:8e:c9:c8:ba:53:85:89:cf:e6:f1:b8:02:f9:82:52:72:
        48:f7:eb:1a:5d:fa:e7:ce:15:11:d2:ff:73:26:e5:da:6c:e0:
        a6:f4:47:8f:ae:63:39:81:65:ef:e2:23:e1:42:3b:75:7d:71:
        31:20:5d:f7
-----BEGIN CERTIFICATE-----
MIID2DCCAsCgAwIBAgIUAwi31ZIfvVoSZsigwCgTmwhZsRcwDQYJKoZIhvcNAQEF
BQAwOTELMAkGA1UEBhMCQVUxFzAVBgNVBAoMDkRvZGd5IEJyb3RoZXJzMREwDwYD
VQQDDAhEb2RneSBDQTAeFw0yNDA4MTMwNDM3MDdaFw0yNTA4MTMwNDM3MDdaMEwx
CzAJBgNVBAYTAkFVMRcwFQYDVQQKDA5Eb2RneSBCcm90aGVyczESMBAGA1UEAwwJ
QnJvdGhlciAxMRAwDgYDVQQDDAdub3RpbWVzMIIBIjANBgkqhkiG9w0BAQEFAAOC
AQ8AMIIBCgKCAQEAvpWG+nFMaupRmFBLmaEsZhXzYPPh/2n7zkgBHf7hLDiw472P
S0infjrGc+Orv+Habpb1/sPktKitvFY01JYldCfDENs1ECUcjkuBm/tCBHxvPeI4
bA7kLo4qGG0wzWcqI2s3zwWfzLdZWH+6xAo/jKSty5icwPKPaWcPwU4zz/yFXrte
z5Owz9n0UnmHsfhNFWhl1bcZCGN/XrE0rQWPWvDk4Y8l8lxcYZWwVi0xKwhleeWx
O50+uVJLrF3EWGaFjYGzBCj0Py+skgFi1f2OC9oCDHrHbgkcrByyTNdUuCYzsl8U
87H5PWJNQJlrtueJWJfW1E3qS2hS8zyosTWI2wIDAQABo4HEMIHBMB0GA1UdDgQW
BBSh3zPDzz5TQadoRMyqGeGEyQ28xjB0BgNVHSMEbTBrgBS0ETPx1+Je91OeICIQ
T4YGvx/JXqE9pDswOTELMAkGA1UEBhMCQVUxFzAVBgNVBAoMDkRvZGd5IEJyb3Ro
ZXJzMREwDwYDVQQDDAhEb2RneSBDQYIUKFaDXOckPD4eSoW1Y1gxrGj++3AwEgYD
VR0TAQH/BAgwBgEB/wIBATALBgNVHQ8EBAMCAQYwCQYDVR0SBAIwADANBgkqhkiG
9w0BAQUFAAOCAQEAjno2Vjez6V0IyQjCTyPnj8Lx7qMDBuxxH2YZzSQuyBeOsp54
FlEIUkgBoWAc0RVAe+rOeN5Hblgzv9Y1eja69rGWcwQV2UlLmrVqeWG9JmJxiCIH
vhfdmHRRSp/31vzFw9wcfgFROcHixHVoF6OaCJrnUWerpJFTO2I8d49OwuH4TA0i
xkMNk1NypUg3baIIHR7A0K5jerEQ+FYZrn7gZAXlA8o6Cgdy6R48v1TUow2gN0i9
xfUAzkfwCwTXV/I66QUifGUG+ZWOyci6U4WJz+bxuAL5glJySPfrGl36584VEdL/
cybl2mzgpvRHj65jOYFl7+Ij4UI7dX1xMSBd9w==
-----END CERTIFICATE-----
